ddbdd bdddd ddddd ddbbd ddddd bddbd lddbd bddld ddddd dlbdb bdddb ldbbb lddbd xlbbd dbbxd dlddx 
ddldd dxddl ddddd dbbdd ddddb dbddb ddxbb ddddd ddkdd ldddb dbdbd blddd ddddd bdddb dbddd bdddd 
bdlbd ddddd ddbbd bbxdd ddddd ddddb ddddd dxbdd ddddd ddbdd ddddl ddbdx ldxld dbddk bdddd ddbbl 
dbbdx bddll dbdxb bdddd ddbdd dbddd dddld dddbd dbddd ddbbd dddbd ddbbl ddxdd bddld ddddd ddddd 
xbdbd ddddd dbddd dddbd ldbdb dddbb ddbld bddyd bdlbd dddld ybydb bddbn ldlbb lbddb ddbdx ddldb 
dbddd ddbdd ddbbd ddddd obddd lbxdd ddddb lbbll ddddd kdddd ddddb ddddd ddbll ddddb dlbbd dbdbd 
bbxbd bdxdl dbldd ddbbl ldbdd dxldd dbddb xdbbd ddlbd bdbbl dddbb ddldd ddbdd ddddb ddbdb bbddy 
ddbdb xbbbd dldld dbddd dbddd llbdd bbbdd bdddb dbbdd ydbdd bbddd ldbdd dddbd bdldd ddldd ddddl 
xybdd ddddd dddbb ddddd dbdbd bdddb ddbld ddbld bdddd ddbbd ddbdd ddbbd ddlbb ddddb bbdbd ddydl 
dxddd ddddb ddddl ddddd ldddl dddbd ddbdd bddbd dydbd dlbdd llddd bddbd dbbdb dlddd dbddl dbddd 
lddbb dddxd ddddd ddddd ddbdd ddbbb ddddl bbxbd bdydb dddbb ddddb dddxd dddbd bdbdb lddbd ddddb 
ddbdd bdxbd ddddb dbbdd ddddd dddld ddddb bdddd bdbnd bdbdb ddddd ddddd ydbdl ydbdd ldddd bdddd 
blddb ddbdb ldlld ddddd bdlld bdddd ddldb bbxlb ddbdd ddddd ddbdx bdbdb ddbdb blddd ddlld dbydd 
ddbdd ddbbd dbbyb dddbd bbddd bdddx dxxyd dbbxd bddld dddbb bdxbd ddbdb dxdbb dddbd ddbdl ddddb 
ddldd bdddd llbdl lbdld bdddd ddbdl bdddd dlddd ldbdd dlbbb dblbd dkdld ddbbd dddbd dddld ddldb 
ddddd dbdld ddldl dbbdd ddddd dddbl bbddy dddld ldddb bddbd dbbdd bdddb ddddb ddddl bdddb dddbb 
ddbld bddbd ddddd bdddl ddddl xdddd dlddd dbddb ddddb ddbdd dbbbl bxddd ddddb ddbdb ddddd bbddd 
ddddb ddbdd dlbdd dddbd ddlnd dnddd bdbxd ddddb ddbdb ddddl dbbdd ddddd dxdxb bddbb ddbbl ddddd 
ddbdd dddbd bbddb bxbdb ddbdb ddddd xdbbl kddbb dbddd ddddd blbld ddddb bdddd bdxdd dddxd dbddd 
dlddd ddddb llldd ddddd dddbd dddyb dbddl llddd bbdbb ddddd ddddd ddbdd ddddb bdbbd dbddd ddbdd 
ddddd ddddd xdldb ddddd ddbdd ddbdd bddbd dddld ddddb bdbdd ddddb dldyd bdddd xdbdd dbdbd ddbdl 
ddddd dddbb ddxdd dbdxb ddbdb ddldd dddbd bdddb dddld dddbb ddddd ddddd dbddb dblld ddddl bdddb 
dddlb bdddd dddbb bdddd dddbd dlbkd bdddd ddbdl ddddb ddddd dddbd dlddb dbbdd ddddd ddddd dbldd 
ddddd ddbdd ddbbb ddddx ddldd lldld bddbd dddbx dddxl bdbbl bdddx ddlbb ddddd bddld bxddd ddddd 
ddbdl dlbdd dddbd ddddd ddddl ldddb bdbdd ddddb ddlbb blddd dbddd dddxd ddldd bdddd dddbd bddxd 
lddbb dbddd dbdld dbdbb bddbd dlbld ddddb bddld dldlb ddbxd bdldd dbdld dbddd xbldd bddld ddddd 
ddbdd ddbdd dbddd ddddd xdddd dddbd dbddb dbbdd llydd dbddd bdddd bdddb ddddd bbdld ldxdd dbbdd 
ddlld ddbdd bddbd bdddd dbbbb dbddd bdldd ddddd ddbbb dyddd ddddd bdddx ddddd dbddl dddbd dbdbd 
kdddb ddbbd bdddd lbxdd bdddd dldld ddlld ddbyl dbddd ddddb ldbxd bdkdb bddlb dddld bbbdd ddbld 
ddddl lldbd bbbdl bddld ddddb ddddd ldddk bdbdb dbbxd ddddx blddb ddbbd dbddb bdddd ddddd ddddd 
bbblb bdldd dlddd bdbdd lbdkd dbddd xdddl dddbb dbddd ddbdd dlddb ldddd dbdbd dbddd ddddb dddld 
llbbd bbbdx bdbdd wldbd ddbdd ddlld dbddb ddddb dbdxl dbddx ddldb dybbd ddbdb bdddl ddbdd bdddb 
ldddb bdydd ddyxb bbdld xdldd dddld dlbbb bdbdd bblxl bdddd ddbdd ddddd dbbdd ddllb ddddb dldbb 
bddbb ddddd ddddd dbbdb ddddb ddbdd ddddb blddd ddddb xdddx dddbb bddbb ddbdb ddldd ddddd ddddd 
ddbdd dbddl dbbdd dbdbd bdbdd ldddb bbxdb bddbd ldbld xlbdd ddddd ddddd dlddd dddbl bddbd bdddd 
dbddd ddddd dbxbd dddlx dxddd ddddd bdddb bdbdd dddlb ddllb lbddd ddddb dbdbb ddbdl bdbbl lbddd 
bbdld ddbdd dddbb ddddb ddddb lxdbd ddbdd ddbby dddbd dlddd bdbbd ddbdd ldbdb dllld dldbd dldbd 
dxbdb ddddb dbddd bdddd lbdbd dddbd bdlbx ddddb dbddd dbddb bddbd dlddd ddddd ddddb bdddb dlddd 
dbddd xdddd ddbdd ldddd ddddd dddbd dbddb ddbdd dddld ddbdb dbddb dbddd bdddd bbldd ddbdd ddddl 
bdddd dddld xbdbx dddlb ldbdd ddddd dddbb xxdbd dblbd ddbdb dddlb ddlbd ddbdb ddbdd ddxld lbdbd 
ddbdb ddddd ddddy dlbbd dlddd dlddl ddbdd kdbdd ddldl dddbd dbddl dbddd bdbdb bdbdd bdbdd ydbdd 
bdddl dbdxy dbddb bdbdd ddldd dddbx ddblb ddbdd bddbd dddbd ddbdb dddbb ddbbb ddddd dbdbd ddddx 
blldd ddddb xdddd dddbd dddbd dbdkd dbdlb dbddb ddbbd dddlb dddbd dbddb xbbbd dddbd ddddb ddddd 
ddddb dddbb dbddd dlldd ddddd dbdkd kdddb xdddl lbddl xbddd llddb ddddd ddddd dbddb ddddd ldddb 
ddbld ddddb ddbdb lddbb bbldb ddddl ddlbx ddddb dbdbd dbddl ddydd ddddl bdddx dbddl dldld bbbbd 
bbddd bddbb xbdbd bddld ddxdb ddddd ddbdd ydddl lbddb xdbbb dddbb ddddd dbddd dbbdd dddbd lldld 
bdddl dbddx bbddd bdldd bdddd ddddd ddbdd lddbd ddddl dlbdd ddddd bddbd ddddd bbddd ddddl bdldd 
bdddl ddddb dddbx dbddd ddldb dddbl ldddb lddlb ddldd bbdxd dbddd dlbdd ddbdd bdbbd ddddl dddbd 
bdddb ldddd dylld bdbdd bddld ldddb dbddd bdddd dddbd ddddl dlddb dddbl bdddb dbdbd ddbdd dddlb 
ddddd dbddd bddbd lbddb dbydb bdddb bdddd dkldb dddbd dlldd ddbbl bdddb bdddd lddbd ldbdd ldbbd 
dxbbd kddlx ddbbd ddddd ldddd dbddl dbddd ddbbd ddddb ddddb lbxxd dbddd dbdbx ddddd bddll lldbd 
ddddd ddbbd dldbd dddbd bdldb dbddb dbbdd ddldd dddbd bdddd bdddb dddbl ddbdd dddld dbdbb dbddd 
dddbb dxddd dbddb dddbb bdbxd dbddd bdddd dbddd dddbd dbddn dddbl ddddd ddddd ddbdd dbddd dbddd 
dbddl ddbdd ddddb ddddd bxdbd ddbdd ddddd bdbdd dbddd llldd dddld ddldd ddbdb ddddd ddldb bldbb 
lbddd ddddd ddddd bddbb ddddb dddbd ddddb dddbd bdddb ddddl ddddd bdbdd ddddd ddddd ddddd ddddb 
dddxd ddbdx dxddl dblbb dbddd lddbd bdddb dxddd bdddb ddbdd bddbd ddddb bddbl bddbd ddddd ldddb 
bdbdd ldddd ydlbd ddddd xddbd bkddb dbdbb ddddb bbddd dbbxb bddbd dbbdd ddbdd dlddd ddddd ddldd 
lbddd dddbd bdddd ddldd bdbdd ddddd dddbd dxldd bdddd bbbdd dddld ddddd dddbd ddbbb bbbdb ddddd 
bdddd ddldd ddddd ddldd ldbdd ddbdb bddbb dddbb ddddb dlddd ddbdd ddbbx ldddd dbdbd blddd ldldd 
ddbxd bdbbl dlddx bdddb ldddd bdbdd ddddd dddlb ddddb bdbdd xdldd lbdxx dddbd dbddb bbdbd ddddb 
bdbbl dbddd lbbdd bdbdd dbbdb dbdbd dbdbd bdddd ddddd lbdbd ddddd dldbd bdbdd ddddx dlddb dbllb 
ddddb ddddd bdbbd ddldd ddddd ddlbd bdbdd bdlld bddld dxddd dbbld dddld bdddb ddddd bdddd dbbbd 
dddbd dddbd bdbdb ddxdb dbddd bbddd bbddl bdlbb dldlb bddxd ddbdd ddddb ddddl dlxdd ddldd bbbll 
dbddd dxbbd dddbd bddbd dlddd bbbdd bbdxd blddd dbddd ddddd dddlx bldlb ddxdd dddbd dbddx dbddd 
ldddx ddddl ddbdb dldyd bddbd dddld dbddd ddddl bddbl ddxdd blddb ddddd dbdbd dbdlb xlddb dddbb 
bdbdd bdddl dbdld lbbxl dlbdd dlddl ddddd ddddb blddb dddbd bdddd ddddb ddbdb ddddd dbdbd bdbdd 
dddxd dybld ddbdd dddbb dbldd dddbl ddbld bxddb ddbdd ddbdd ddddb bdbdb ldddd bdbdd dbddd ddbyd 
ddddd dlbdd dddlb ddddl ddbbd bbddd ddddd ldddd dbddd dddbl ddddd blblb bdddb dbbdd dddbl ddddd 
bddbd bddlx bdddd dbddd ddxdb bbddl ddbdd ddddb ddddd ddddd ddddd ddddl ddbdl dldbd dbddd dbddb 
dbddd dddld ddbdb ddbdd bbbdb dddbd ddbbl ddlbd ddxdb bddbb ldddd ddddd dbxdb bdddb ddbbb bbddd 
xdddd dbbdd bdddd ddddd ddldb dlddd xlbdd dbdbd ddddd dldbd bddbd dbdbd bddbb ddxdl ddddb ddddd 
bdbdl ddbdd ddbbd ldbby dbbll dbldb ddddd dddbb ddddd ddddb ddddd dbdbd ddddd ldddb dbddd dbdxl 
ddbdd bbldb lddbb dddyd dlbbd dbddd ddddd dddbd bddld dbbbd bddbb dddld ddbdb blddb dddbd dbdbd 
bdbdb xdbdb dbddb dbbbd ddddd dddkl bbddd ddbdd ddddd ddddd ldddb dddbb dbddd ddlbd bdddb ddbdd 
bddbd ddddd dbddb ddlbd ddldd ddddd bdddb ddddd ddddd kblkb dbbdd dddyb bdbdd dxdbd dbddd ddddb 
bdbdd bdddk dlddy dddld hdddd ldddd ddddd dbdld ddddd ddlld bdbbl ddddd dbbld ddbld dkddd ddddb 
ddddd ddddd ddddd llbdd lddbd dldxd dybdd dddbd ddddd dlddd dbbdx dbdbd bdddd ddlbd dbdld ddddd 
dbdbb ddddb dbdbd dddlb bdddl bdbdd ddddd bbddd dbddx dbddd bybdd dddld ddbdd dddlb dddbd ddddd 
ddbdd ddbdd dbddb dxbdd ddbdd ddddb blddd ddddd dbldd dbbdk ddldd dlddd ddbbd dddbd ddbdb dbddd 
bdldd bddbd dbddd dbdlx bdxlb ddddd bdddd dxddd bddbd bxddd ddddx ddddd dbddd ddbdb ddbdl dddbd 
ldbdd dbbbb ldbbl dbddb dbbld bdbxd bddbd ddldd ldddd dddld ddbdd ddbdb ddbbx lbddd ddddb dlddb 
ddldd dlddb ddddl dbbdd dbbdd dlddd bdddd bddbb dbddd dbddd bdbdb dbdbd ddddb bdddd bdddl dbbbd 
ldbbd ddddd dxddd ldddb ldbld dbddd dlddd dbbld lbbbd dddbd bddbd bddbb ldbll dlddd ldbdl kddld 
bdddb dddbd ddldd xbbdd dddbd dddbd lddld dbdxd dddbd bdddd ddddd bddbb ddddd dbbyb ddbbd dxddd 
bddyd dbddd odddx ddddb dbddd bbddb dddbb bdldd dlbbd ddddd ddddd ddddd xdbdl xddbl ddddd dlbdb 
ddldd dbddd ddblb bdddd ldddd dbddd ldddb bdbdb ddlbd bdddd bybdd dddbb xbldb bdybd dbddl bdddd 
ddbdb bbddd dbddd dddld dxbdb dddbd bdddd ddbdb ddbdd dkbdd ddbdb dbbdd bddld dddbd ddbdd ddldl 
dddxx ddddd ddddd ddddb ddddd ddbbd ddbdd dbddd ddbdd ddddd dbddd bddlb dbddd ddbdb bdddd ddbdd 
ddddb ddldx bddbd bdddb bdddl dbxdl bndbb ddddl dylbb ddddd ddbld ddddl bddxb bdddd dddbd lbdbb 
ndbdd bdddd bdbdb ldbdd dbdbb ldddd ddldd ddbdd dddbd xddbd dbbdd dbddb dbddl ldddd dbddd ddddd 
ddbdd dlbdd bdbdl dbdbd bddbd ddddb bydbd ddddb bdddb lddld bdbdb dddlb ddbbd xdddd dbdlb bdxdx 
dddxd dddxb ddddd dddbd bdbld ddddl dlbbd dbdbk dldbd dbbdd ddbdd ddddy ddddd dbbdl bdlbd dbddd 
bdddd dddbx dddbb dbddd ddddd ddddd ddbdd dddbd ddddd bdddd bbdyd bddbd dlddb bbbdd ddbdl lbddd 
ddddl xdddd ddbbb bdylb dbddb bdddd dbddd bdddl ddbdd bddbd bdblb bdddd dddbd bdddd dbbdd dddbd 
ddddd dlxdd ddlbd ddddd blddd dddbd ddddd ddddd dddbb dddbb ddddb ddxbd dlddd ddddb dddbd ddddb 
dddbd ddddd dbbbd ddddd dbddb dddbd dbddd ddddd ddddd dbddd ddddd dbkbd dldld dbddd bdddb lbdbd 
dbdbd yldxd bdbbd dbddd bdblb ddbdd ddddd dbddd bdldd bdddd ddddd ldbbb dbdlb dbddd ddldd bdbdd 
ddddd bbdbd dldxd ddddd dbddd ddldb ddddd bddbb ddldb dbldd bddld ybddd dddld dddwd ddddb ddydl 
bdbdd ddddd ddyld bdddd ddddd ddbkd lbdbd bydbb ddddd dddbb ddddd dlbdl ddddd dbddd bbddd ddddd 
dddbb ddddb lbddb dddld dbddd bxlbd dbdbb bdddd llndd yyddb bdddd ddbdl dbdbd ddldd ddbbd ddydd 
dbdbb lbddb ddddd bdbdl ldddd ddddd dlddd dlddd ddddl ddbdd dbbdb ddlld dbbdb bbddd ddbyd dbddd 
ddydd ddddd ldbdd dddyd ddbbd bddbd dddbd ddxlb ddddl dddbb dkdbd ddddb dlddd ddbbd ddddd lbddd 
ddldd dbddd ddddd bblxd dlddd ybdld bddbd bbbdb dbdlb dddbb dbddd dbbdl bdbdb ddddd xbddd bbbdd 
ddddd dbdbd dddbd ldbdd ddbdd dbbbd dddxd ddddd bbddb ddddd ddbdd ddbdd ddbdb blddd bdddd ddddb 
ddddd dddbl dxdbd dbddd dbdbd dbddd ddbbd dlddd dxddd bddlb ddddd dbddd ddddd bdbbd bdbdb dbbdd 
dbddy bbbdb ddddd bddbb dddbd dbdbb dlbdd dbbdd bdddd ddddd ddddb ddbdd bdddd dddld dddbd ddddl 
ddddd ddbdd ddlbd dbddd bdbdx ldddd dlbdl dddxb dddbd bdlbb ddddd dddbl dbxbd ddddd ddddb bdbdd 
ddddl ddddb dddbd bdddd ddbdl bdddd dddbb ddldd bddbd dddld byddd dddbd dlddd dxdld ddbdd ddbbd 
dbddb ydddd ddldd lbddb dbddd dbddd dxxbd dddbd dbddb ddbbb ddddd ddbdd dbddb bbbbd ddddl ddddb 
ddbbd ddldb dbddl bdddb lbbdd ddddd ddddd ddddl ddddd lbbdd ddbbb lldbd lbddd ddddd bddbd dddbd 
dbddd ddbdb ddldd ddddb bbbdd dlbbd bddbb bbddd ddddd xdbdl dbbdl dbddb blbdb dbbbb dbddd dbddd 
ldlbd bdldd ddddy bdddd ddddd ddddb dddbd dbbbb ddbdd dbdld dlddb dkdld ddddd bbbdd dbbdb ddbdd 
dddld dddbd bbddb xydbd ddbbb bddbb ddbbd dbyld dddbd bdddd ddbdb dbbdb ddldb ddddd ddddd ddddd 
ddddb bddkb ldddd dbdbx bxxdd xbddd dbdbb ddddd ddbdd ddbbd dbbdd bdbdd dbdbd dlxbd dddbl bbbld 
lddld dlddd bbddd dlbbd ddddb ddddx dddld dbddd ddldb ddddd bdbdb ddbdd bdbdd ldddb lddbb dllbd 
ddddd ddbdl dxdbb ddbdd ddbdd ldddb ddbdd dbddd ddddx bbdld ddddd bddbd dddbx ddddd bdbbb ldbdd 
llddl dddld ddddd dddld dlddb ddlbl bddbd dddyb dddld dbddd ddddb dlldl ddddd ddxdd dddld ddbdb 
dbybd bddxd dbdld ddddd ddddd bbddd bdddd ddddd dbbbd bdbbd dlddd dxddb dbddb ddbdd ddddd ddddd 
ddddb bdddd ddddd ddddd dlddd ddddd dbdld ddddd ddbdd dbbdd lxddd ddbdb dbddd bddbd ddbdb bddld 
dbbdd dlddd blddd ddbbd dbddd ddddx ddbdd bdddb dddbd dbxdd lbddd dlddd dddbd ddddd dbbbd ddddd 
dbbdb ldbdd bdddl dddld dddbb bldld dlddb ddbdd ddddb bdddl ddxdd dlddd dbbbd dddxd xbbdd dbdnl 
bdbdx ddddd dlbdd ddydb dddbd xdddd ddddd ddddy ddddd dxddd dlddd ddddd xddbd xdddb dddbb ddddd 
ydddb ddddd dddbd ddddd dlddl bdbdd ddddd dddbd ddddd bdddb ddbbd ddddl dxdbd ddddd ddddd ddddx 
dbbbb dbddd ddddd ddddb dbddd bddbx ddbdd ddbdl bbdbd bdddd ddddd bdbbb ddddd bbddd ddbbd bddbb 
dddbd ddddd dbdll ddddd bldbd lbdlb bdldd dbddd dldbd ldddb ddddd ddbdb dddld ddxdb ddddd ddddd 
ddbbb ddddd ddbdb ddddd ddbdb ddbdd dddld ddddd ddddd ldbdd bdddd dbddb bdddb dndbd dbddd bbddd 
ddddd dddbd xdxdl ddddl ddbdd ldxbd ddxxb ddddd bdlbd bldbd bbdbd xdlbd bdddd bbbdd lddbd dddbd 
ldddd ddldd bdddd dbddb dbddy ddldb ddddd ddbdd dbdbb ddlbd dddbd bdbdd ddddd ddddd ddldd ddddd 
ddbdd dbddd bddbb ydddb bdddd ydbdb ldbdd dlldd dddbd lbddl ddddb ddddd bddll dbddd ddbdd dbddb 
ddddd dddbb ndddd dlddd dxddd ddbdd bllbd dbbbd ddbdd ldddd bdddd lbddl bbbby blbdl ddddd ddddb 
bdddl bdddb bddld dbddd dddbd ddddd bdbdb ddddd bdbdd dbdbb ddddd bdddd bdddd ddddb dbddb ddddd 
dbdbd xybdd dddxx ddddd bdbdd ddbbd ddlxd ybddb bbdbd dbbld bdddd bdbdd ddlbb ddddd dllbb dbldd 
ddbdb dbddd ddddd dbddd ddddd bddbd dbbdd ddbdb dddbd dbddd ddddd ddbbx ddddd dddbd ddddd bdblx 
ddddd dbldd ddbdd bddbd ndddb ddbdd dddld bdddd bdddb ddbyl ldddd xddld bdddd ddbdd dbbdd ddldd 
bdldd ddddd bdlld bdddd dddbd dbxdd bldbd ddddb ddddy ddddl dbddd ddbdb bdddd dddyd dbddd ldddd 
ddddd dbddd dddbd bldxd bdbdd ddddd bdddd dxddd ddldd ddbbd bbdlx ddddb bbldd ybddd dxdbb ddddd 
dddbb xdddd bbbdd dnxbd dbdxd dldbd ddddd ddddb dddbd ddbdl dddld dddld dldlb dddbd bdddd ldbbd 
ddddd bdddd bbddd lbddd dddbb ddbbd ldddd ddddx bbddl bdddd dbddd dbdbd bbddl bbbdd dddld bdddb 
ddddb ddbbd dbddd dbddd bdbdd ddydd dddbd dxdbd dddxd bbddd bbdbd dbddb ldddd ddldb bnddb bdbbb 
ddldb bbbdb ddldd bdddl bdldb dbddd blddd dddbl ldddb ddddd bdddd dbddd dddbd ddddb dddbd dydyd 
bdddd dddnd dlddd bbddd ddddd bdddd dxbdd dddbd lddbd ddddb dlddd ddddd dbbdd ddddd ddddd dbddd 
ddllb ddddd dbdbl ddldl ddbbd dbdbb ddbdb dlddl ybddd xbllx dddbb ddddd llbbb dldld dddyb lbddd 
dbddd ddyld ddbdd xxddd llddd lbdbd lbddd dlxbb ddddd xlddb dlddb bbdld bybdd ddxbd ddlbd dblbd 
dblbd ddbbd ddbdb dlddl ddddl bdddb ddddd bbdxb dddld dxddd ddbby bbddd dlblb dddld bxdbl dddbd 
dddll ddddb dldbd ddddl ddldd bdbbd dbbdd ddbxd bdxdd dbddl dddbl ddldb ddlbb dddlx ldddb bbddd 
dddbd ldddd bbddd dddbd kdldd ddddd dbdbd ddbdd ddddd ddddb dlddd ddddd bdddb ddddd xdbdd ddddb 
ddddd dddbb ddldb dddbd dxldd ddddd ldddl dbddd dlbdd ddbdb dbbdx ddddd dlbkb ddddd ddbdd dllbd 
ddwdb bdddd ddbdd bbldy bbddd ddddd bbddd dddld bbddd ldldd ddddd bdbdd bbblb ddbdb bdbdb xddld 
dbdbb ddddb ddddd ddddd dldbd ddddd bbddd ldbdd dbdbd bdddb ddddb dbddd dydbd dbdbb bbdbd ddddd 
ldddb dddbd lbddb kdddd dkbbl lbldb xdbdd dbddd dbbxl ddbbb dbddb ddldd dddbb ybdbl ddddl ddbdb 
dbddb bdddd ddddb xdbdd ddbld ddbdl dbddb ddbdd bdddd bdbld ddddd bdddd bbdbb dbbdd ddddd bdbdd 
dxdbd bxbbd dlddd dbddd ldddd ldddb dbddd bbddl ddddd bdbdb bbddd ddldd dlddb lbddd bdbdd dddbd 
bbbbl bdbdb ddldd dddbd dbddd ddxxd bbdxd ddbdb ddddd ddbdd dyddd ldddl ldldb ddldb bdddd ddbld 
ddbdd ddddl dddbd dlddl lbdbd ddddx dlddl dbddd ddddl bbxbb ddddd ddddb ddddb ddddd dbddd dddbb 
dbddl ldbdd dddbd dxddb ddbdd ddbdb dbddl ddddb ddddd dddbd ddlbb dlddx ddddb ddddd ddddd dbbol 
ddddd ddbbd ddldd bdddd ddddd ddddb dbbdd dddlb ddbdd dbbdx bdddb dddbb dbydl dbddb dlldd ddldd 
bdxdd ldbbd dbbdd ddldd ddddl dbdbl dlddd dddbb bbddb dbddd dlddd dldbd ddddd dddlb bbydb dddbb 
blddy dldld bbddd ddldd ddldd dbddd bdbdd bdbdd ddddb bdbdb ddddd bdbbb ddbld dbddd dbdxb bdbdd 
ddbdd dddbb ddbbb ddddd ddbld ddddl bbdbd ddbbd ddddb bbddb bdbdd dbddb ldddl bbbbd dlddk ddddd 
ddddd ldddb ydddd bdbdd ddddx xdbdd bdbdd bdddd ddddb ydddd ddddb bddbd ddddb lbdxd xddxl dbbbd 
dbkld ddxdd dbbdx ddlbd ddbdb ldbdl ddddb ddddb dbdbl bdddd dddbb dbddb ydddd bdddb dldbd ddddd 
dbddd dbddd ddddd ddddd dbbdb bdxbb lddbb ddblx ykddy dbblb dddbd bbdxd ldbdd dddbd dddld dldbd 
ddddd lkddb dbddd ddxdd dbdbd ddddd ddddl ddbbd dddbd ddddd bdddb dddld ddddb dbddd xbddd ddldd 
ddddd lbddd ddbdd ddbdl bdddk dbxdd ddddd bnbbd bdbbd lxddd ddddd lbbdd dlldd ddddd bbbxb dxddd 
ddddd dxbdd ddddb bddbb ddddl bbbdd dkdlb bddbd ddddd dddll dbbdd dbddl dbddd ddxdb dxddd ddddd 
bddbd bdddd dbbdd dbbld ddddb bdbbl dddbb dybbb ddbdd dddlb ddbdd dlddx bbbdd dddbd ddddd lddbl 
lbddd ddldb dbddb ddbdl ddddl bdddx ddbdd dyddd dbbdl dddbb dbddd ddddd bddbd dbbdd dbddd bdbdd 
ddbdd xdddl bdxbd bdddd dlddd bdddd bdbdd dyddd dbdld dddld dddbd lddbd ddddd ddbbb ddldd dbbbd 
bdbdd dddld bbbdd ddbdd dlddd bdldd ddbdd dxbdb dddbl bdddd ddbdd xdbdd bbdbb ddbdd ddldd lbdld 
xdddl bdldd blddy ddddx dbdld dbbdd ddbdd ddddb lbddd ddddb dddbd bbddb ddbbd ddddb ddbbb bbbdd 
dddbd bdbdb ddddd bbbdd bdldd dlddd dbddb ldddd ldbld bddbd bdbdd ddbbb xlldd dbddb bdddd bdddd 
ddddx ddddb bddld dddbb bdddd dblbb bddbd ddddl lbddd ddddd bdbdl bdbdb ddddd dlydb ddddd bdddb 
ddddb bddbl bdddd bdddd dkbdd ddbld lbdby dxbdd dbdlb bdlld dddbb dddbd bddbd dbbbx ddbdb bbbbd 
ddbbb bdddb ddddd dlddd ddbxd dbddd ddddd bdldd ddddd ldddd dbddb dddbd bdddb dbddb dddxb dddbd 
dybbd ddddd ddddd ddbdd dxbdb bdddb bdbdd lddbd dbddd bdddd bdldd bdddd dddll dlbdl ddbdb bbdbb 
dddbb bbddd bdddb dbbdb ddbbd dddbb ydkdd bxbdd dbddd ddbld bdbbd bddbd ldddb dddbd ddbdd bbddd 
ldddd ldbdd dbdll ddlld ddddl bbdbd dbdbb bbddd dddld dddbb ddbdd dddbd dddbd bddlb ddddd bdldl 
dblbx dddbd ddbdb bdbbd ddndd dddxl bdddy ddddd ddbbd ddddb ddddb bbdbx dbddd ddbdd bdbdd ddbdd 
ddbbd lbbdd ddlxd ndddd bdlxd dbddd ddddd dddld dddyx bddlw ddldb ddbdd ddddl dlddd ldddd bdddb 
ddddb ddbbd ddldd ddbdd bdbdd ddddd ddddd dbdxd dbdbd bbddd lbdbd dddld bdddd bdddd bddbd bldbb 
ydddd ddddd ddddd bdddl ldddd bbddd dbddd bdddb ddddb ddbdl bddbb ddddb byldd ddbdd dbddb dlddd 
ldddd blddd dddbb bbddd ddddd ddddb dddxd dddbl bddbd ldddb dddbb ldddd ddlxx ldddd bdldb dbddd 
dbddd dbdbb dlddd ddddd ddddd ldbdd ddddd dbddd dddld ddddb dbbdd ddxbd xdddd ddddx xdxbd ddddx 
ddybd dddbx dbldb dlbdd dlddd ddldd ddddd bbddd ddddd ldddd ddddd ddbdb dddbd dddbb ddddd ldbdl 
ddobl ddddb ddddd dbddd ldxdd bdddd ddbdb dbddd bdddd dxdbb ldddx dbbbb lddnb lddbd ddddd bdddb 
ddldx lkdnd ddbbd dddbd dddlx ldddb dlbdd bbdlb dlddd dbbdd ddddd dlbdd ldbdb ddbdx ddddd ddddd 
xdddd dbbdd dbxdb ddddb dddbb bbbdd dxbdb ddxdd dddbd dddbd bddbd dybld bdddd dbbbb bbdxd bbdbd 
dlbdd dbddd ddddd bdddb ddddl bdbdd bdldx dbbdx ddddd dddll ddddd lddxd ddddd bbdld ddbdb ddddb 
dbdbd ddddd dddld dddxb bblbb dbddd ddbbd lddbd bdddx bdlbd dbdbl ddddd dlbdd dddbb ddddl bdbld 
bdddd dddbb ddbbd lldbd ddbdd dbddd dbxdd ldldd lbbdb bddbb lddbd ddbbd ddldl ddddd blddx ddddl 
dbbbb ddbdd ddddd ddddd dbbbd ddddd llddd dxddd bdddd lddld ddbld bbddb bbdbd bdbdb ddddd dbddl 
ldddd dbddd ddddd ddbdd ddddd bdbbb ddbdd llbdd ddddl dlbdd bdddd bdddd blbdb lbbbd dbddd bdddd 
ddddb bddbd ddddd ddddd ddddd dbddd ddldb bdbbd ddddd dbdbd dbddd dddbd ldddd ddddd ddddd bdddd 
dlddb dddbx ddddd dddkd dldyd ddddb bdbdd dbdbd bbbdd ddddd bbddd bdbdd ddbbb nbbdl dddbd ddddd 
dbddd bdddd ddddd dddbd dbddd dbddb dblxd bbddl dddbb dbdby dbddd dldbb bdddd dddbd dybdb dbddd 
ddddd dbbdd ddddd ddddd bddlb ddxdd dddbd dlddl ddbbb ddbdb dlbdd ydbdd bdbdd dbbdy dddbd ddddd 
dbddd bddbx ydddd ddddb ddddd ddddb llndx kdddd ddddb ddddd dbddd dddlb bddbx dlbdd dbddy dbddl 
ddbdd ldbbl dbddd bdbdb dddbd dddbb dbbbb xdbxd dbdbb ydddd ddbll dbdxd dddbb bdddb ddddx lddbd 
bbdbd dddxb bldbd ddbdd ddbdy bdxdl bdddd bdddd bbybl xddbb ddddd ddllb dbdnb bdddd ddbdd dddbb 
ddbbd ddddd dddbd ddddb ddddd bdddd bdldd ldbbd ddddl dbddb ddddb bdddd dbddd bddbb ddbdl dddld 
ddddd dddbd lblbd dddbk dybdb bdddb xdldd bddbl bdbdd ddddd dbbdd ddddd ddddb ddlbd dbdbd dddbd 
dlddl blddy bdbdd dxddd ddddd ddddd ddddb ddbdb xdddd bbxdd ddddd dldbb bdddd dbdbb ddddd dddbd 
ddlbd bdbdd bdbdd ydxbb dbbbd bdddd bdbbb dddbd ddbbd dbddd ddddd lddbb lddbd bdbdb ddddl dddlb 
ddbdy lbdbl ddddd ddddd lbddd dydlx ddbbb dxddd bbddl bddbl ddxbb ldbdd ddbdd ddddd dddbd ddddd 
dbddd dbddd ddddb dddbd dxdxd ddddd bbddd dbbdb bdldb ldddb ddddd dddld ddddl ddddb dlbdd bdddx 
ddddd bbldd dlddd ddddl bbdbd dbddb dbbdd bdddd ddddd bdddd bdddd dxdbb dddbd lddbd ddddb bbddd 
lbddd ddddd ddbld ddddy ddbdd dbldd bbddd bdbdd bdddd dldlb ddddd bddbx ddddb bbdld dddlb ddbbd 
ddbdb bdddd ddddd dbddl dlddb bdbdd ddddb bbddd ddddd ldkdd ddddb dddbd ddddd bdddd bddbd dbddb 
bbddx dbbdd bdddd bdbbd ldddd bdbbd bldld ddbdd bdbbb dddld dbddd dlddb ddddb ldddd ddddb dbdbd 
ddldd dddxd ddbdd bdddd ddbdb dlddd bdldd dbbdb dbddd ddddl ddbbd dddbd ddldd yddbb dbbdd bbddd 
bddbl dddbl ddddd dddbd dxddd ddydd dkddb bdddd dbddd dddbd ddddd ddblb ddbdd ddddd dblbd ddddd 
dbbbd dbldd bdbdd dddbd lbbdl ddddb dbldb bbldb bbddb bbdld dddbd xbdkd ddldd ldddb bdbbl ldddd 
bddld dbddd xdbbx ddddn dddld dlxdd kddlx ddbdb ldddd ldddd bdddb bbbbd lddbd bbbdd dddbb dbbdd 
dbddb dddbd bdddl ddbdd ddddb dddbd ddddd bbddl dlxdd bdbdd ddbdl dddlb dddbd ddddd bbddd dbddd 
dddld dddld dddbb ldbbd ddldb ddxdd lbddd bdddd dbddl dlddb dbdbd ddbld bbbdd ddldd bbddd bdddd 
ddddd llddd ddddd lbbdd dbddd ddbdd bdbdl ddddd bdddd ldddd ldbbd ddddb dbddd bdbdd dblly dddkl 
lddbb bdddd lxdbd ddbdb ddddd bdddd dddbb lbdbb bdddb ddddd xdddd ddddb ddxbb ddbdd ldddd dbbdb 
ddddb llbdd ddddd dlddd ddlbb ddldd ddddd bdbdd lddld ddddd dbdld dddbd dbddd dkldd ddddb ldddd 
dddbb ddddd dxbbb ddddb bdxld dddbd dddld dbddd ddddd ddddd dddbl lddbb dldbd dbddb ddddd bbbdd 
bdddl ddbdb xddbd dddbd ddbdd ddddd ddbld ddbbb dbddd dbldd ddbbd bdddd ddddd dbddb bbbdd ldddd 
dbbdb bdbxd ddddb dbddd ddddd ddddb ddddd ddddd dbdbd bdblb ddxdd dlddd dddbd ddldb ddddd dddbd 
dbddd ddbdd ddbld ddbdb bdddb ddbbd ddbyd dbddd dbbbd dlbdd dbddd ldddb ldbbl ddbdx ddbbd bbdbb 
dlddd ddbdb ddddd bdbdd dddbl dlbbd ddldd ddddd ddddd bdldb ddddd xdddb bdddd bdddd dbdbd ddldb 
ddlxd ldbbb bbldd dddbd ddbdl dddbd ddddb ldddd dbddd bdddb dbddd dddbb dldbd bdbdb dddld bdbdl 
blbdl blddd ldbdx dbbdl bbblb dlddd ddbbd bbddd ddddb ldddd ddbdd dxdxd bdbdd ddbdl dbdld dbddd 
ddddd bdbdd ddddl ddddd ddbbd dddyl ddbdd ldldl ddblb bddbd xdlbd ddddd xdbdb dlddd dbddd dddld 
dddbd dbbbd dddbd dlddd bdddl dddbd ddddd dlddb ldddd dddyb llddl bbdbk dbldl ddddd dbxbb bdddx 
ddbld dbdld dddbb dddyb ddbdd ddlbd dddbd dbddy bdddd ddldd dddbd ddddd dbbdd xxddx dbbdb bdddb 
dbdbd dbddd ddxdd ddddd ddbdl dbddd dbbdb ddddd ddddb dddkd bdddd ddddd ddddd ddddd bdddd dbldl 
bddbd dddbb bdddd dldld dbddb dbdbb dxddd ldldb dylbb dxddd dlddd dbbdd dlddd xdddb xddll dbbdd 
dlddd dbldd bddbd dbdbd ddddd xxbld dldbd dddld bdbdd ddddd xbbbd bdldd bdddd ddddd dlddd xddby 
ddddb ddllb dbddd bdddd dbbbk dddyb dbdbd ddbdd dddbl ddddd ddddd ddddd ddddd ddddl ddddd ddbdd 
ddddb ddddb bbddd dddbd ddddd ddbdd ddddb ldddd ddbdd ldddd ddddd bdbyb dbdbd bdddd dddbd lbbdd 
xdddl dbldd ddbbb bdbdd lbdbl bdddd dddbd dbddb dbbdd dddbx ddxdd ldddb ldddd ddbdd dbddd dddlb 
dbddd bdbdd xbdbd bdddd dbddd ddddl ddbbd dbdbb dbkdd ddddd bdddd dddbb bdddd dlddb bddbd dddbd 
dlddd ldddd ddddd ddldd bdldd dbddd bddlb ddddd ddbdd ddddd bddbx ddddd kbbdd dbddx ddbdb dllxd 
dbdbl ddddb ddddd ldddb dbddb bdddl ldbbd bddbb dddll ldddd ddddd ddddd dddxx bdddd ddddl dlbdd 
dbddd bbddd dlbbd ddydd ddkbd ddbxb bbddd bddbd dbddd ddddd dddld ldddd ddddl bddxb ddbdy dbddb 
ldddd bddld bbddd ddddd ddblb dbdkd bdddd ddddd bdbbd dbldd blbdx dddbd ddddl ydxdd ddddd ddbbd 
bdbbd dddyd xdddd ddddd dddbd ddddl dxddd ddddd ldddd ddxdb dbddb dddbl ddddd xxldb dbdbd ddddd 
dybdl dbldd ddbbd dddbl bbldd ddbbd ddbdb bblbd ddbyd ddbdd ddddd dbbdd dbddd bddbl ddbbd dbldd 
lldbb bdddd bbbdd bdddb dddld ddlbb bdddd bbdbd dlddb lbddd ldbld ldddd bbdld ddbxd ddldd dbddd 
llbdb dddbd bdldd ddddd ddbdd ddddd blbdb llddb lbdlb bdddd lddxd ddldy dddbl ldddd dlddb bddbd 
dbddd ddddd dbddd ddddd dbddb ddxbd ddddd dbdyd ddddd dbbdd dbddd dddbb ddldd ddddd dbblb ddddb 
lbbdd bdldd dddbl dddbd ddbbd bdldb ddddd ddldd dbdlb ddldd dldbd dxddd ddddb dybdb ddddb dlldd 
ddlld bbbdd bddbd bdddd ddbdd dbbdd dbddd bbddd blddd ddddd ddddb ddddd xdblb dddld ddlbd dddld 
dldld ddddb dbddb dddbb dbdld blddb ddbdd dbddd bbxld dbdbd dbbdb ddddb ddlld bdbld ddbdd blddd 
bdbxd dldbl ddbdb bdddd dbdbd ddddb ddddd ddbxb dnybb dbddd bbddd dbddl ddddb dbddd ddbdb ddddd 
ddbdl dxdxd ldddb bbddx dbxdd dbddx dlbdd lbddd ddddd ddddd dbbdd ddddd dbddd ddddb dddld ddbld 
bdxdd bxddd dbddb dddxd ddddd bdxdb bbddd bdddd bbddl ddddb dbddb kdddd dddbd dbbdd dddld xbbdd 
ddddb ddddd bdddd dddbl ddddl ldddd dbdxb blxdd dbdbd dbddd dbblb ddbdd dbddd yddbd ddddb ddddd 
dddbd ddddd dlddd ddbdx dldbd ldddd lddxb ddddd ldddl bddbd dddbb ddldd dbddd ldldl bdddd ddddd 
ddddd ddddd ddbdd ddddb xlbbb dbddd ddddd bdddd ddddd ddddb ddddd blbbb bdldd dbbdl ddddd ddddd 
bddld bdbdd xbxbd dbdlb ddddd ddlbd bbddx ddddd dlddd blddd bdddd ddldd ddddd dddxd dddbd bdldb 
blddd ddddd ldddl dbddd ldddd ldddb ddddd dbddd ddldd xdddd ddddd ddddl ddbbd xdddd dddlb bddbd 
dbxdd ybbdd dddbl bbllb dlddd ddbdd ddxbd bdddd ddldd ddddd ldbxd bddld dlddd ddbdd dbddd dddby 
dddbd ddldd ldddd dbbdd dbdxd dblld dldbd ydddd dddbd dbddb ddddb ddddd bldbx dlddd ddddb ddddd 
ddddb dbddd dddxd lddbd dxbdb ddbxb dddbd bbddx bddlb dldld dbddd ldbdl ddbdl dbbbd dddld bdddd 
xbxdd ddddd ddddb blbdd lbddd ddddd ddddl bxddd dblbd bdxdd ldddb dddbd ddddd bdldl blddk ddbdd 
lddbd dlddb xddxb ddddl ddddd ddddb lbddd ddbdd bddbl bdbdb bdlbb xdldd bdkdb lddxd ddddb ddddb 
dbddd dddyd bdddd bbldb ddbll dbbxl ddldd lxddd ldddl dbddd ddbxd xdbdd dbdyd bbdbl ddddd ldddd 
bdddd bdddd dbddd ddddd lddbd dlldd bddbb ldddl ddddd dddyb dddbd dlbdd dbddd dddbb bldbd ddbbd 
dddbb dddld dbddb dbdld dldyb bdbbb ddbdd ddbdb ddddx ddddb dndbl dbbdd dddbd ddbbb ndddd ddbdl 
dbldd ddbdd dddbd bdddb ddddx ddldd dxddb dddbb dbldd dbdbd bbdld bbbdd ddbdb dddbl dbddd ddddd 
bxddd bdddb lbbdb dddxd dbldd dddld dbbdl dddll ddddd ddddd ddldd bdbdb dddlb bbbbb ddbdd bddld 
bdddd ddddd ddydd bldbd ddbdd bdddb ddldd dlddb ddbdd ldldd ddddd ldbdd bdbdd ddddb ddddd bbdbb 
bddxx ddddd dbdbl bldbd blddb dbbdd dlddd bbbdd lddbb blddd ddddd dbddd ddxdd bdddb bdddb ldbdd 
bddxd dbbdd dddbb ddddd ddddd dbbdd bbddb ddlbd ddlld ddbdd lddbd ldddd ddddd ddddl dddbd bdddd 
ddddd dddbb dlbdl ddlbd ddddb dlddd ddddd dxddd ddddd ddddb dddbd bddbd dbdbd ddldd dbbdl dddxb 
bdddd bdddk bdddd lbdbd lbddd bdbbd dbddd xddbd dbydd ddbdd ddddd dbddd ddydb lbdld dlddb ddddx 
dddbb bdxxb ddlbd dbddd lddbb bdddd dbbbd ddddd lbdyl dbddd ddddb dddbd dbbdd bddbd ldbdd ddldb 
ddddd bdxdd dlddb ddddd dbdbd dddbd dbbbl dbdld dddbd ddddy lxbdb bbddd bbddd lddbd dbddd bdddb 
dbbbb ddddd dddxd blddd dbddb bdbdd dddnd bddld dxbdd kddbb dblbd bddbd bdddd bdbdb ddldy dbdbd 
dbdbd ddbdd bdddd ldbbd ddddd dbddd llbdb ldbdb bdddd dbddd blddl ddbdd lddbd dddld xddbl ddddb 
dbddd ddbbd ddddd ddbbb dddld dbdbl ddbxd dbdbd ddxdd dlddx yddbd dbbbd bldyd xdbdd ddddd bdddd 
ddbdd ddddd dbbdd ddbdb bdbbd byddd ddldd ddbxd dbdbd ddddd ddddd ddddb ddbbd bddll ldlbb dddbd 
dbddd ddddd bbddb bkddd bdddb xdddd bdddl ddydb bbddd dbbdd dbxbd ddddb bddbb ddbdd ddddd dddbd 
ddbdb ddddb dddld bldbb dddbd dlddb ddddd ddbdd lbdbd ddbdd bdddb ddddd ldddd dddld ddddd ddbdb 
dddbd dddbb bdddl ddddb bbdbd bbdbd ddbdd ddddd lwldd lddxd ddbdd bdbkx lbdbd dddbd ddkdd dbldd 
ddlxb dddbd ddddd dbddd blddb dddxd bbdxb ddddl ddddb bbddb ddbld dbddd bddbd dddbx ldddl dbdbd 
ddbdb bblbb bbbdd ddodb dlblb dbbdd dlbdy bdddd ldldb ddddd dddbl dbbdd dddbd dddbx ddbdb ddndl 
bdddb ddddd dddbb bddld ddxdb ddddd bddyd lyddd ddbbd bddld dbddd dblld llddb ddddd ddbdd dbdld 
bbkdb dddxd dbddl ddddd dddbd dldxb dbddb dbddd ddddd dddld ddxbd bbxld xdbdd ddddd ddddd dbddd 
ddddd bdbdb dbdbd ldddd dddbl ldddd dlddx bdddd ddbdd dbdbd ddddl ddddd ddbdb ddbbd dddbd yxbdb 
ddddb ddddb lddbl xdldd ddbxd bdddb bdddd ddddd ddddd blddd dbddd lbdld ddddb dbddd ldddd bdddd 
bbbbd ddddd ddddd ldbdy dddlb ddddd ddddd ddbbd dbddx dddbd ddbdb ddddd dddbd ddbbd blbdd ldddd 
ddddd dddbb ddbdd ddbbd dbbdd dbddb ddddd ddldd xddbd bdddd dbddb bdldd ddddd ldddd bbbdd ddbdb 
ddddd bbbdb dddbd bdbdb ddddd xbbdk kdddd dddlx xddld ddddd bbddd bdbdb dlddd ddddd ddddd dybdd 
dddbd dlxld bdxdd ddddb dbdbb dbddb ddddd bddbb xldbb dlbbl dxbdd ddxbl ldddb dbddd dlddd bdbdl 
ddddd ddbdd bdddd dbbdy dddbd dbdkb nbxdd bddxd dlddd blddb ddddd lbbdd bdddb ddddd dbdbb bbddd 
dbbdd xdddb bybdd ddddb ddddb bddlb dddlb bddbb ddldb ldldb xdlbd ddbdl ddldd ldddd bbdld lbxdd 
bdddb ddddd bxdbd bdddd dblbd ddddd ydbdd ddddd ddxdd bbxbd bdbdd ldbdd dbddd dbldd lbdld ddbdd 
wbddd ddddb ddblb bdbld bdddb blddd bdddd bdbdd dlddb dddld ldxdb lbddd dbddl ddydd ddldd bdddd 
dddld dbddd dbbdd dyddx ddxdd ddddb xddbd dddbd xdddx ddddd ldddk lbddd xddbx ddddd ddddd dllbd 
xbbdd dbddd dbbbd dddld ddddd wbbdd ddbdl dlddb dddxd bbbld ddddd dbdld dbdbd ddbdd bdbbd ldddl 
ddddd bdldd dbddd ddldd ddddd ddddd ddddd dddyd ldddd ddddx ddldd llldd bdbdd bdddd ddddd blbdx 
dbddd lbddl ddddl ddddb ddbbd dbxdd ddddb dddbd ldddd dbdld dldbl dbdbd dbdxb dddbd ddddd bxbdd 
ldddd ddddb ddbdd bddbd bdbdd bdbdd bbbdb dbdbb ldddd ddddb bldbb ddddb ddddd ddxdd bbdbd ddddd 
ddddd ddddb ddddd bdddd bbddd bddxd dkddb ddddb bdddd dlbbd dlbld ddbdd ddddd bbldd dbdbd bdddb 
ddddd dldld ddbdd ddddd dddbb ddbbb dbbdd ddbdy ddbdd dddbd dbdbd bbddd dbldd lddlx llddd dbldd 
ddddb bbdld dbddd ddddd ddblx bdbdl ddbbl ddbbl dbldd dbddd dlbdb lbddl bddbd dbddd dbldd ddddd 
bdddb dbbll ddbdd dlbdb ldldd ddbdd bbddb bddld ddddd dxdbd lbdxd bddbb ddddd bdddd ddbdd ddbdd 
ddbld dddbd bbddb ldlbd ddddd bdbdl dldbd dlddd ybxdb bbddb bdddd bddbd dlddx ddddd dbbbd ldddd 
dddxd ddddd dddld ddbdd bdddb ddbbd bdddd dbdld dbddd bdbbd lddld ddddd dddld bdbbx dddbl ddddb 
ldddb dddld dddbd bbldd ddddb ddbdd ddddd ddddd ddldd bdbdd dddbd ddldd ddbdd ddldl dbddb ddddy 
bdddd dddbd dddbd ddddd dbddd dbldb bdbdd ddddd bdddd lblkb dbdbl bbdld bbbdb bbddd ddbdd xdddd 
dddby bdbbd bdbll dbbdb bdddd ddbdb dddll bdbdd ddddb dbddb bdbdl ddlbd ddddd dddxl bdddd ddbdd 
dlddd dddbl ddddl lddbd ddddb ddddl ddxdd xdddd xbddb ddddd xdddd xddld dldlb dddbd bdddd ddddd 
dbdld bbddb ldbdd bdddd xdddd ddddd llddd dxbdb ddbdb ddbbb ddddd bdlbd ydbbd ddddb bblbd ddddd 
dlddb dddbx dbldb bbdxd dbddd bbdbd ddbbd ddddd ldddl ddlll dlddd bdbdd dddbd dxbdy ddbbd dddld 
ddddb ddddd ddddd ddddd bdbdb dddbb dddbd ddddd bdxdd ddldd dbbdd bddbl ddddb dddkb ddbdb bdbdd 
bddbd lddlb bdddd ddbly bddbd ddldb lbldd ddddb ldddb ddddd bbddd dbldb dddld bdddb dddbd ddddd 
dbxdd dddld bdddd dbddd dbbbd dbddd ddbdd dddbd dbddd dddld ddddd ddddd dbddd ldbdd xbbbb bdddd 
ddddd ddddb blddl dddbd blxdd ddddd xddbd dddbd dbddd dldbd ddbdd dbbld ddxdd ddddb ddddd ddddd 
dbddb dlddd ddldd ddddd bdddb dbblb bbddb ddbdb ddbdd bdddd dbddd dbdlb xbdbb ddbdd dbxbb bdbdy 
ldddx lddbl bdddd dlbdd ddddx ldddl dbbdd dddbd ddddd bddbd ddbbl ddddd ddbdb ddddb bbddd ddddb 
ldddd dddbb bdldd dbbdb ddddx bbbdb dbdbd bdbld dldxd dbddb dddbd dlddb ddldl dbddd dbxdd dddbd 
dddbb ddldd blddb ddddd ddddd ddddb dddbd dbdbd dxddd ddbbd ddbbd dbddd ddydd lddbd ldldd lbbld 
ddbbl bbddd ddbdb ddddd ddddd dddbd dbdbd bbldd bddbd ddddl bdddd bdddd bdlbd ddlbd bdbyd lxddd 
bdddl dbldd dddlb ddddb bbddb dbddb bbdbd bddbd ddddd bddlb dbddb bdldb xdbyd dddbb ldddd dbdld 
ddldd bdddb dddbl dlddd ddddd dbdbl ddddd dbbdd dbbbd dbddd lbddd bdkdl bdddd bdxdd ddddd bdddd 
dbddb ddddd dbddd lbdxd ddbdd ddddx ldddd dbdbd dbbdd ddbld lbbdd lddbd ddbbd dxdld dbddb dlddd 
ddddb dbdlb dlddd ddddl ddbdd ddddd bdddb ddddb bbbyl ddldl ddddd dldxd dbbdd ylddd bbddd bdddd 
blbdd ddddx lddxd dddbd ddddd bdddd dddbd ddddd dbdld lbdbd dlddd ddddd ddbdd bdxdd dbddd xddkd 
dxddd ldddd ldxdd dbddd dbdbb bdbdb dddxd ddddd bddbb bdllb lbddd dbddb ddddd bbdbd dbddl bddbd 
ldbdd bbddd ddddd dbbdl dbdbb dldxl ddddb dbdld bdxdd ddddl ddbbl ddddd ddddd bdddd xbdbd bxddd 
bddkd dbdbd bdddl bdddb dddbd ddxdd xlddb dbldl dddbb dbddd ddbbd ddddd ddlbd dddbb dbdlb ddlxb 
ddbbd dybdl ddbdd bdbbd ddddd dddbb ddbdd dbbdl ddblx dbbdd blddd dddld dbbdd ddddx ddbyd ddddd 
ddbdb ddddl ldbdd ddddd bdddd dbdbd ddbdd ddddx ddxdd ddddd ddldb blddd dbdxd bdddd dbddd bbbbd 
ddddb ddddb bddbd dbbbd dbbdl ddbdb ddxdd ddddd bdbdl bbldd ddbld bdbld dddxb ddbbb ddydd ddddd 
ddddd ddldd dbddd dddby ddddx dddbd ddbxd dbldd ddddd llbdl ddddd dxddd ddddd ldbbd bddxd dddld 
dddbb dbddd bbbdb dddll xbdbd ddddd bdlyb dlddl ddddd ddlbd ddddd ddddb dbddd ddddx ddbbb ddldd 
bddbd bbddd ddddd bbdld dbdbd bbddb ddddd bdddd ddlbd ddddd dbldn dbdbd ldbdd bbddd bbddb ldddd 
lbbdd dbddd bddll dbddd bdbdb bdldd dddbd bdddd ddldd ddlld dddlb ddddb bdddd dbdbd ddddd xddbb 
dddbd dbddd bdddd dlddy bdddd ddddd bdbbd dydbb ddddb bdbld dbdbl bdddb ddldd ddddd bddld bdxdd 
bdddd bddbd bddbd ddddb ddddd dddbb dlddb xlddl dlbdd ddddb ldbdl lddbd bdddy ddddd lbdbb dlddb 
dddbb bdddd ldbdl ddlbd bddxd bdddd ddddd ddydd ddddb ddddd dddbb dddld ddddd bdddb ldddd bdbdl 
ddddd dbbdd ddddd xdddd dbbdy ddddd dyddb blblb ddxbd dddld lxydd ddddd ddddd ldddd lbddd dbdbd 
bbdbd bbddd ddldd ddldd lydbd bbbld bdddd bdddd dbddd bddbb dlbdd bbddd ddddd dbddd dddbd bdddd 
ddbbd bddbd ddbbd lddld ddbbd dddbd dddbd ddddb bdbdd dbbdl dbdld dbddb dlbbd ddddd dbbdd bkldd 
ldbdd bbxdd dbddd dbbdx bbldd ddddb bbydb bddbd dxdbd blddd ddddd dbddl dblxd dbldl dbddb dddlb 
ddddd dldbd ldbdb ddbdx dddld dxdbx ddddd bdddd bdbdd bdddb ddddd ylddd bdddd ddddd dbddd xddld 
blddd dddbb dbbdb lbbdb dbbdb ldddd lxkdb ddddd ddblb dbydb bbddd dddlb blbdb bdbdd dbbdd dddbl 
ddddb ddldl ddbbd ddydd ddddd ddddb ddddd ddbbd kbbbd ddddd xbddd dldbl bdbdd ddddd ldddd ddddb 
ddddd bdddd dddld lddbd ddddd ddddd dddbd dbbbd lddbb ddddx dlbbd dlddd blddb dxbdd dblbl dbdbb 
ldbdd ddddd bdbbb ddbdd lddbl bddbb bddbd bdddb ddddd ddddd ddddb bdddd lbddd xdddl ddlbd ddbby 
bdddd ddddd lddbd bdddd dddbd ddddd ddddd ddbdd ddddd lblbd dddbl ddddd ddddb dbddd dddld bdddl 
dbbld ddlxx bxddd dbddb dbddd ddddd dbbdn ddddd ddddd ddddd bxbbd dddbd bdbdb ddbdd ddddd ydxdd 
dblbd ddddd dbdbd dbdxb dbdyd dblbd ydddd bdddd lxdld ddddd ddddb ddbdd bdddb dbdld ddbdd blbbb 
blddd dlbdl bdbdl dddbb ddddb dddbd ddddd ddddb fbddl dblbd ddddd dbldy bbddd ddddd dbddd dbdld 
ddbdd bldbb byddd ddxll bdddd dlydd lddbd bdddb ddddd dbxbd ddlbd bdddd dbydb dddbb bdldd ddddd 
dbdbd ddddd ddddd ddbbb ddddd ddldb ddbll bdddy ddddd ddddd lddbb ddbdb dddyb dbddd ldbdd ddbdd 
bdddb ddddd ddddd dlldb ddddd ddbbb dbldd bdddd lddbd lldbd ddddd blbdl ddldd ddbdb xdxdd bdbdd 
xdddb ddddd dddbb dbddb ddbdb ddddb lbdld ddddd ddyld ldddd bdbyd ddldd bdldl dddld ldddd dddbd 
ddddd ldddb ddddb bdldx dbddb dddyb bdddd blddd bdlbl xdddb ddddd ddddb dbddd ddddb ldddd xxbbd 
ddddl ddxdd bbddd ddddb bdddd dbbdb dlddd lbbld dddld ldbdd ddddd dddld dbddb dbddd dddbb ddddb 
bbddd dddbd dbddd dbbbd ddldd ddddd dlldl ddddd blddd bddbd ndbdd ddddd ldddd dblbd ldddd ddbdd 
dyddd ddddd lbbdd ddldd ddddd bdbdd ddddd ddbdd bdddd ddddl xddld xdddd bddbb ddddd ddddl dldbd 
bdddd dbxdd dbbdb ddbdd bxbdb dbbdd ddbdd dkddl dbbdb ddxbd dlbdd dbdbd ddbdd ddddb dbbdd ldddb 
blndb dlddd ddbdd ddbbd dldbd ddddd ddddd ddbdd ddddd bdddd ddbyd ldddd dbdbd dbddd dlddb dddbd 
dbddb dbddl dddbd dldld ddddd bdddb xdddd blddd ddbbd dddld ddddb dddld ddllb ddldd dlbdy ddddb 
ddlbd bdldd bdbdb ddldb ddddl bdldb blxdd xdddl bdddb ldddd ddddd ddbdd bdddd bbbdd ddddd dlddd 
ddbdd ddddb bdddd bbbdd dbddb dldld bddbb bddbd dddbd bdldd dbbdy bddld dbdbd dyddd dbbdd ddldd 
ddbdb bdldd bbdbl ddlbd dddbd dlbbd bbddl bdddb bddxd bdddd ddbdd ddddb ddddd bdldd ddddd dbddd 
dddbd dbddd ddddd bdbdb bdbbb lbddd bdddd dbdbd dbddd xdddd lddbd blbxd bbdbb dbbdd bdbdd ddddd 
bdbbd ddddd ddldb ddddd ddbdb bdkdd ddbbb dddbd bdddd bdddd dddxd bdddd ddldl bdddd dddbd dddyd 
ddddd ddbbd ldbdd dddld ddbld ddbdb bdbdb ddldd dbdbd ddddd xdddd dddbd ddddb dbbdb ddlld dddbd 
bbdbd dddbd dddbl ddddd bbbdl ddddd ddddb dbddd bbddd dxddd ldddx ddddd dbddd ddddb ddddd dbddd 
dbbbd dbbbd bdddd bdldb dbbbb dxddd bdddd ddddb dbbbl bdddd dddbk ddddl dbddd xbdbd dbldd dbldb 
dbydb xdbdb dddbd ldbdd bdbdd bdbld dddbb ldddb dbxdb ddddd dddbd dbddb dbdbd dbbdd ldddd bddbd 
ddxdb dxdld ddddd ddddd dddbk ddddd ddddd ddldl blddd bbddd ddbbd ddldl bdddd bdddl ddddd bdddd 
ddddd ddddb ddddd blbdd bxdbd ddldd ddbdd ddddd dbddd ddddb ddbxd ddddd ddddx ddldd ddddb ddddd 
ddbld dbdld bdbdd dbdbd bbddd dlxdd ddddd dddld lbddd ldbbb ddddd blddd ddbdd ddddd ddddd ddddd 
dlddb ddldd dxddd ddddd ddbdd ddldd ldddd dbbbd dbddd lbbdd bddbl dxbbd ddbbd dbxdd dbddd dbbdd 
dddlb dldxb dbddd ddldd dllbd bdbdd ddddd dldbl dddbd bdddl bdddl ddddb dbddd bbddd xdkdd dbdbd 
dddld bbddd ddddd dbddb dlbdb ddddb dddld dbddy ddbld ddldd dbdbd dddbb ddddd xdddd ddddd bdbdd 
ddddd dddbl ddddb ddbdd dbddd dbddd dbdld ddbdd ddbdb ddddd dddbd ddlkd dbbdx ddbdb bddxb dddbd 
bldwd bdddd bdbdd bdddd bbldd ddddd bdlld bdddd lbddd bddld ldddd ddddx dddld dxbdk lddbb xbddd 
dxdbb dbdyd bbddd dbdll lbddd xdbdd ddbxl ddddd ddddb bdbdd dlddb ddddd ldddd ddddb bddbd bdldy 
bdbbl dbdkd dlddd dbddd dbdbb lddbb bdddd ddxdd ddlbd ldddb dlddd bdddb dlldb ddbbb dyddd bdddd 
ddddd dbddd dddbd ldlbd ddldd ddbdd ddddb ddddl bdddd ldddd ddddd xdddd dbbdd ddbdb bdldd ddddb 
bdldd dbbdb ddddd lbbbb bdddb ddlbb ddbdd dbdxd ddbbd ddddd ddbbd blddb ddbdd dbbdd dbddb ydddb 
dbddb ddddd ddddd dddbd dddbb llldd dddbl dbdbb dddld ddbbb ddddb ddbld bdbdd bbbdd bddbb dddbb 
bbdbd dbdbb dxddd xdddd bddbb bdddd lbddd blddd bddbd ddldd dbbll blbxl ddldd ddddd ddddd dddbb 
dllbb dxybb dbbdl dddbd dbbdd bdbdb dlbdb ddddd ddddd bdddd dldbb dlbld bddbd dbldd ddbdd lbddd 
dbddb bdddd dddld bdddb dddbd ddddd ddddd lddyx dxddb ddblb dbddd ldbld dbddd bddbd ddldd ddbdy 
dddbb ddbdd ddddb bddbd bddld bdddd bdddb bbbdd ddddl dddbd lddbb dxbdd lddbd dbddd ddddd ddddd 
dxydb ddlld ddbbd ldbdb ddddd dddbd byldd xdddd dddbd bbbdd ddddb bdddd dbddl bddxd ddddd dbddd 
dddbd xdddd ldddd bdddd bdddd ddddy ldddd dbbdd ddddd blxld ddybd ddbbd bddbd ddldd dlbld ddddd 
bdddb dlldd bbdbb dbdbd bdddd dlldd dyddb bddbd ddxdd lbddb dxddb dddld dbbdd bbddl bbddd ddddd 
bbdbb ddbby ddbxd bbdbb xbbbd bxddb ldddb lbdll ddbdb ddddb dbddd ddbdl ddddb dbbbl ldddd dbddd 
ddddd ddddd dbddd dlbbd dlbdb xdddb ddddd ddddd ddddl ddbdd dbbxb dddbd ldldd ddbdd dbdlb ddbld 
dbddd ddbdd ddbbd dddbb bdddd ddddb ddbbd lbdbd dbddd ddldd dlbdd ddddl dddbd ddddd ddddd ddbdd 
bddbd bddbd dbdbd bdbld lbbdl ddddb ddddd dddbd dlblb bdbbd blbbb dxddx llddd dbldd bdddd xbbbd 
dbddl ddddd ddddd ddddd ddddl bbddb ddlbb ddddd dddnb xdbbl dldbb dddbd dddxd bdbdb bbddd bdbdd 
bdxdb dddbd ddddd dbdbd lddbd llddd bdxbd ylddd bdlbd dbdbd bdbdd ddddd dbblb dddbd dddbd ddddd 
ddbbd dddbd ddlbd ddddd dbdbd ddddd ddxbd ddbld ddddd dbldb bdxdd dbddd dddld ddddd bdddd dbddd 
dlddd xldld ddddd dddyd dlddb ddbdd dddbd dddbd bdddd ylddb dbddb dddlb ddbbd ddydb ddddd blddb 
lbbdd ldddd ddbdd ddbdd ddddb ydbbd ddbdd ddbdb bxddd dbbdb dbddd dddld ddddd ddbdd dldbb bdbbd 
lddbd ddbdb bddbd bdddl dbdbd ddblb dbdbd ldxdd ddbbb dddbd ddbdd ddbdb ddbdd bdddd ddddd ddddd 
dbdbb dbldd bdddb ddddd ddbbl bbldd dbbbd dddbd ddddd bybdb blddd dbldd ddddl dbbdl bddbd ddddd 
ddddb dbbdd blddl ddddd dddbd ddbld ddxdd xdddx bddlb dbddl dbddd bbbdd bdbdd ddddx bbdbl bdddd 
dbdbb ddddd dlbdb bldlb bdddd ddddd ddddd dddbd ddbdd ddddb ddbdd dlldd dddbb bbddd dbdbd bdddb 
lddbl ddbdd ddxld bdddx ddbdd bdbdd bddbd dbddd lddbd dbbdb ddddd ddbbl ddbdd dxbdd bdddd dbldd 
dddxd ddddd bbdbd bdbbb ddddd bdbdd ddbdb dddbd bldlk ddldd dddbb dddbd dddld bddld dxbdd ddddd 
bdbbb ddddb ddddd ddddd ddddd ddbbd dlbdd ddybd ddbdd dddld ddxdd ddddd dbddd dbdbd ddddb dbbdb 
dldld ddldl bbylb bdddd ddbbd blddd kdydd dlddd byxdd dlddl dbddb ddbdb ddddl dbydd ddbdb bbbbb 
ddddd ddbdd dlxdd dddbb ddbdb bddbb xdbdb ddddd dlddl dddbb dlddb ddddd dlldd ddddd dddbd lbdbd 
ddldl dbdxb dbldd ddddd ddddd ddbbd dbdbd ddddd bldld dddbd dbddd xbddb ddddb lddld ddddd ddddb 
dbddd dbdbd ddbyd bdbbd ldddl dddbd xdddd bbddd bdddd ddddd dbddd lbdld dddbb ybbdd ddddb ddbdx 
dbbbd ddbdd dbddd ddddd dbddd dddbb ddddl ddbbl ddbdl lbddb dddbd lddbd bdddd ddddd dddbl ddddd 
dbddd bddbd lddbl ddbdd ddbdd blbdl bbdbd dbdxd bdddd dddxb dddbd bdddb bdddd ddddd dblyd dbdbd 
ddddd dbbdd ddddb ddddb dbddd dddlb dddbd ddldd ddddd dddbd dbddd bddbb xbbbd ddddd ddddb bdxdd 
dlddd dbddb ddddd ddddd ddbdb ddndd bddbd ddddd dddld bdbdd ddddb ddlbd ddddb dbbdd lbddd dbddb 
bbbld bdddd ddxbb bdddd dddbl dddbl ldddb bddbb ddbld bbddd ldbbd lbdbd ddbxd dddbd bbddd ddddb 
dddbx dbbdd ddddd ddddd ldblb ddddl xbbdb dbddb ldddb ddbdb ddbdd dlddd bddbd dbbbd bddbd bdbbd 
ddbdl dbbdb ddddd ddddo bbddd dbdbd ddddb ddddl bdddd ddbdb ddddd dblbd bdbdd dddld bddlb ddddb 
ddlbd dlddd dddbd dbdbd dbbdd ddldn bdbdb bdddd dddld dbdld ldbdl xdddd bybdd dddbd bdldl bdbbd 
bdbbb ddddd yllbd dbdbb ddddd ddbdb dddbd dlddd ddddd bdbdd dbddd dlbdb bdddd dddly dbddd dbddl 
xbdbd ddddd bdddd bbbdb ddbdl ddddd lddbd dbdbb ddldd ddddd ddlbd ldddd bbddd dddbb dddbb dbbbd 
ddddd ddddd ddbxb dddld ddddd ddddd ddddb ddlld ddldx ddddd dbdbd bdddd bdxdd llldd ddddd bdddd 
dddbl bdddb dxdbl bdddd bdbyl ddbld ddbdd bbdbb dbddd dbxdd dlddd bdbdb bddbd ddbdb ddbxd dllbd 
dddbd ddddb ddlbd dxddd xdbdl ddddd bbxxb dbddb bddbd bbxdd dbddl dddbd ddddd ddddb dbdyd dbddb 
ddddd bddbd ddbbb ddldd bdddd dbddb dddbd ddddd dldld ldddb ddbbd ldddd dbddd dbddd ddddd ddddb 
dddbd ddddd bxddx dbddb dlddd ddddd dxbdd bbdbb bdddd lbbdb ddbdd dwbdd dkddd bbldd lxddb ddddb 
bbbld dblbd ddbdd bbddd bdddy ddbdd ddldb dbbdl ddddd dbddd dbdll lddld dlbld ddddd ddddb blbbd 
ddddd ddddd bbbbd dddbd ddddd ddxdd dllll dddld dddbd ddddd dbbbd dddxd bdddd ddbdb ddbbd bddbb 
dbdbd ddbbx ddddb dbbdd dbbdd dbddd ddbbb ddddd bldld ddddd dddbd ddddb ddddb ldbbd bdddb ddddd 
ddbld dlbdd ddddb ddbxd ddbdb dbdld dddbd dbddd ddddd dbddd dldbd dddxb ddbdb xdddd lddld dbddd 
ybddd bdllb ddbdd ddbdd dddld dbxbd dlbdd dddbb dddbd dddbd ddddd ddbld dbbdd lbdbd bdddd dddbd 
ddxdd bdddd dddld bdddd ddbdd ldldd ddbdd ddbbd bdddd dddbb bdldb ddddl dddbd dybdd dlddd ddbdd 
bbddd bbbxb ddbbl bldbd bbddd dbddd dbddd dddbb dddld bdbdx bdddd dddbd ddddl bdbdd bddbd ddbbd 
dlddd bbbdd bdldd dbddb dbddl bddld ddbdd ddbdd dbdld dbdbd ddbdl ldddb ldddb ddddd ddldd dddld 
dbddl ldbbd dlddd dlddd ddddd ddbdd xbddb ddddb dddbd ddbdd bwddd ddddd ddbdd dbbdl bdbdd bddld 
dkddd bdldd ddbbd dbdbl ddldy ddddd bdbdl dddld ddddd lddld ldbdd ddbdd blbbd ddddd lbdbl dxdbd 
dbldd dbbdd dbdbd ddbdd bdbld bddxd dddlb lbldb lbbdd dbddb dlybd dlddd ddddd ddddd ddddd lxdlx 
dlddb bddbd ddbdb dbddd xblbd dbddb dddyd ddldd blddd bbddd ddddd ddbdd dbbbb ddddd ddddd dlbyd 
bddbd bdxbd ddbbd lbbbl ddddd bdddb ddxdl ddddd bddby dddll bdbdb ddddd dbddd lddbd ddddd dlddb 
bxddb ddddd ddddd dylll dldbb ldbdd bdbdd bddbd ddddx bdddd ldddd dddbd dbydd dbddb bdddd ddbbd 
ddlbl ddbdb dxdld dddbd bdlbd ddbdd bddxd ddbdd blddb blbdd bddbb ddlbd dldld ddddd dddyb xbddd 
blddd blddd ddddb xddxd bdlbd ddbdd dddbd dlddd lddbd dbddl bdddb ddddd ddbbd blddd ddddb dddld 
ddddd blddb ddddb bdbyb dbddd ddxbd ddddb dddbd ddbbb ddbdd bdxdb ldbbd dbdld ddxbd bdddd bkddb 
dbddd ddddd ddbdd ddbdd dbdlb dbdld bydbb blddd ldddd dbddd dbdbd dyddd ddddb ddddb dddbd dbddd 
ldddd bdddd ddddd dddlb dddyd ddddd ddddd ddddb dbddb ddddd ddddd ydddd lbddl bbdbd dbddd bxldd 
ddbdd dddlb ddddd dddbb ddddd ddddd bldbd dddld dbdbl dbddb bdddb bdddd ddxbl ddddd bdddd ldbdd 
ddddd ldbdb ddbdb dbddb bdddd dbbdb blddd ddbdb ddddd dbddd dddbd dddbd ddddb ddddd dddbl dddld 
lbddl dddld ddbdd bddbd dddld ddddd ylbdd dlldd bdddl ddddd bdldo ddddb ddddd bddbb ddbbd bbdbd 
ddlbb ddddd ddxxd ddddd ddbby ddddd dbblb lddnd ddddl ddddd ddddx dddbb dllbd dbdbd dddbd bbddd 
ddbld dbddd bkbdd ddbbd bddbl bdddd dbddl bdddd bddbb dbddd bdbdd ldldd dbdld dddbd dddlb bdddd 
dbddd lbddd dddbd ddddl bbbdd ddxdb bbbdd dbddb ddddd ddlbd dbddd bdddd ddldd ddddd ldxdb dlddl 
bdddl ddddd dddbd dxddd ddbdd dbddl dbdbd dlddd ydlby ddxdd ddddd bdddl ddddb dddld ddddd ldbdd 
xdddd ddddb bdddd dbdbd ddbdd dbbbd ddddl bbddd blbdd lbdbd ddbdd dlldl dddbb dddbk bdbdl dbddd 
ddddd dbdxl yddbd lbdbd xbdbb ldbdd ddldb bdddd dbdld ddddd ddddd dddbd dbddd ddkdb ddddd dlddb 
dbldd dddbd blbdd bdddd bdbdb dxddd ddddd ddddb bbddd ddbdd dydld bbdbd ddddd ddddd ddddd dbddd 
ddddb bbddd bdldx dbddd ldddd ddddl dxbbd bdddd ddlxl ddlbd ddddb lxddd bdldl dbddd dddbb ddddd 
bddbd ddddd dddxd bbbbd bbdbb bddbd ddddd ddbdl ddddx ddddx ddddd bbddb bbdbd bdddd bdddd ddddd 
dbddd bdbdd ddblb ddbdb dddbb dldbd xlddb bdddd dxdbd ddddl bbbdd bdddd ddddd bdddb ddddb dddbd 
blxdd ddddb ddddd lbddb ddddd dbddd dddxd dddbb ddbdd ddddd ddddd ddddb dbbdb dlddd dddld bdxdd 
ddddd bddbb ddddd dbdbd bbddb dbbdd lbddd bbddd ldbdb dlbdd dxdxb ddldd dlbbd dddlb ddbdd dbbdd 
ddddb bdddd ddbdd bdldd bddbd blddd bddbb dddbd ddbbd bnxbb dddbd dbddl ddddd xddbd dbbbd lddld 
dddld lbddd bbbdb dydbd bbddd lbddy bdxld ddddd bbbdd dbdld dldld ddddd dddbb dlddd ddddd ddbdd 
ddddd ddddd dbdbd ddkdd dlddl dddlw dyddd bddxd dbddd dbldd dddbb ldddd bbddb bbddb dldlb ddldd 
bbldd dbdld dddbl dbddd ddbdb ddddl dlddd bdddd bxddd dlddd dbdlb lddbb ddbbb dbddx lbbbl ldddd 
xdbdd ddddd xdbld dydbd ddddb bbbdd xwddd ddbbd dbbdd bddbb bddxb ddbld ydbdl ldxbd ddbdd dbldb 
dddbd blddd ldddd dddld bdddd dddbd lddld dbdbb dbddd ddddb dbbdd ddddd ddldb bdddd dxddl dbdbd 
lbdbd bdddd bdddd ddddd dldbd ddbbd ddddd ddddd ddddd dbddd lddkd dlddb ddddb ddbdd ddldd dddbl 
dbddd dddld ddddd dddbl ddddd bdldb dddbd ddxlb dbddd dbddb lbdyd dddlb dbbbb lxddd ddddb dbddd 
ddddb ddddb bxbbd ddbld dbbdk ddddd bbbbb ddbbd dyddd ddddb bdbdd dbbdd dybdb ddddd dddld ddddd 
ddddb ddddd dlxdd dbddx bdddb bdddd ddldn ddddd dbdxd ldddd ydbdl ddddb ddddd dbddd ddddx bxbld 
ddkdb bxdbd ldddb bldbd ddbdd ddddb dbddd ldbdd ddddl dddld bdddd ddddd bdddb lbdbd ddlyx ddbdx 
ybdbd ddbdd ddddb llddd dbddd bddld dblxx ddddd ddddd ddbdd dbbdx dbbld ddddd dlddd ddlld ddbdd 
bdbdd bddbl lbddd dlddd dldbd dddld xdbbb ldldd ddddd ldddl ddddl ddbdd ddddb bddbl kdddd ddddd 
ddbdd ddddb ddbbd ddddd ddddd dbddb ddddb bdddd ddddd ddldd ddddd dbddd ddddd ddbdd ddxbd ddddl 
bdldd bdddd kdddd ddldd ddldd dbbdd dddbd dbddd ddddb xbbbb bdddd blddd dbdld dbdbd bbdbb ddddb 
dbbdd ddlld ldxbb dbddd dddbb dbddd bbddd dbddd bdybb ddddd ddldd lbddb dldbx dddbb ddddl dddbd 
dddld ddbdd dbbbb dddbb dddbd dbddd ddddd dlddd bbdbd ddddd ylddd dbddd dddbl dddbd dddyd dddbb 
dlbdd ddddb bddld ddldd bdbdd dbddd bdbbl ddbdb bbbdd dbddb bdbdd dxddd ddddb ddbdd bbddd dbdbd 
bydll dddbd dddbd bdddd ddbdb dyddd dbbdb ddddl bddbd bdddb lxbbd bdbby ddlbd ddddb dbdbd ddddd 
bdddb bbddd ddddd blddd ydddd bdldd dbddd bdddd dxdlx dbbdd dyddd ddbdd ddxdd dddbd lbldl dbddd 
dbbdb ddbdd dbddb dddbb ldddd ddddb dbddb blbdd lxddl bdddd ddbdd dbddb dbddb ddddd dlddd bdddb 
dbddd ddydb bdldb llddd bdbld bdbdl ddddb dlddd dxbdb ddddd lbdbd ldddl nddxd ldddl ddddb dddxd 
ddddx dlddd dbddd xlddb ddddd bdbdd dddbd dddld dbbdd dbddb bdddd ddbdb dbdbb ddlbl ldbbb ddldd 
yldxb ddbdb xbdlb dbddd bdddd dddbd dddbb lddxb dlddd dbbdd dldbl ddddd dddlb dlddd ddddd dbddd 
bldld ddddl dbbdb dxddd dbbdb ddbbd bdbbd dbddd bdbdd dbddb ddddb bdbdd ddddd xbddd ddddb ddddd 
ddbdd ddddl dxbdd ddddb odbdd ddddx dddbd dbddb dlbyb ddddl ddddd blddd ddddl ddddd bbdbb xddbd 
ddddl ddddd dbdlb dddld ddbdd dxbbd dbdbb dddbd ddddb ddddd ddbdd dbbdl dyddl lddbd dxddd dddbd 
bdddb dbldd ddbdx dddlb ddbdb ddddd bdxdd ddddd ddddd dbdld dddbd ddddb dddlx ddydd ddddd ddxld 
dddbd blbdd dbddd dlddb ddddb ddddd dddld bddbl dxddb dlbdd dbdxd dbddd bdxbd bdddd bdddd dbddb 
xbddd dbddd dddll bdddb ddddd ldddd dlddd bdddd ddddd ddddd dlbdd ddddd bdxxd ddddd dddld dddbd 
bbddd ddddd ddddd dbbdl dyxdd ddxbl ddddd bybdd bbbbd bdddd ddddl dbddb dlldd dbddb ddbdl dbldd 
ddddd dddbd dddbd ddddb ddxlb ddbdd ddddb llbdb ddldd dbdbl dddbd ddddd ddddb bddbd ddddd dyddl 
dddxb dbddd bddld bdxdb bdddb dlddl dbddb bdbbd ldddd ddddd dlddd ddldl ddxdb ddbld bddld ddbdx 
bddbd ddddd ddbdb bdddb dbdbd ddddy ddbdd bdxld ddddd dbddd ddddd ddbld dddbb ddddd ddbdd ddddb 
dbddd bdbdb ddbdd bdddd lddbd lddbd dddbd bdbld ddddd ddddb ddddd dblbd dllbd ddbdd dldbd dddbb 
dbddd ldddd ddbdd ddldb bbddd bddbl ddddd dbdld dbdbd ldxdb ddddb ddbdd dddld dbbdd ddddb ddddd 
lbddd dbddd dddbx ddddd bdbdb ddddd dbddd ddddd bdbdl dddld dlbdd bdxdb lyddb bdbdd bdddb bddbd 
dlbld dddbb ddddl dbddx dxddd ddddd ddbdd dbldb ldbdb dbbbb blddd ddldx bdddd ddbbd bdddd bdddb 
ddddd dbbdd ddddl bddbd dxddl bdxdb bdbdl ddbdd ddldd ddddd ldddd dbddd dlbbl ddddd bdddd bdddd 
bdddx dddbb dddbd dddbd dbddx lblbb ddbdb dddbd ddbdd dbddd dddbl dddbd ddddd ddddd dxdxd dbdbx 
bdbdd bdddb dddbd bldbb ddddb bddbd dbddd bbdbb ddddb ddbbd bdddb ldldb bdbbd dddnb ddldl lddbd 
dddbd ddddd bbddd dbddd ddddd dldld ddddd dbbdd ddldd ldddb bdbdd ldbdd ddddd ddddd blddd ddddb 
ddbdd ddbdl ddddd ldbbb bdlbd ddddb ddbdd dbdbd ddldk ddxbd bdddd ddxxd dbbdd dlddd ddddl ddbdd 
ddddl dbddb ddddb bdbdd llbld bdddb dddlb dddbl ddddd ddddd dddbd dlllb bbkbd ddddb ddddd dbddd 
bdbkb lddbd bbddy ddddd bdbld dldbb ddkdd ddldd dddld ddddd dddxd dbdxb bxbdd dlldd ddbbd dddyd 
ddbbb dddbd ddddd lddbb bdddd bdddd ddbdd ddddb ddlbd bbbdb blbdb bddyl bdddd ddxdd dbddd dbddd 
dxddb bdddd dbddd ddddd bdddd blddb dbddd kbbxd dbbdd bbbdx bddbd bbldd dddbb ddddb blddd ldbdd 
dxddd dbbdd dlbdd ddddl ldddb ddddd dlbbd dxddb bbddd ddllb dbblb dldbb ddddd dbddl ddddd dddld 
ddddd dbldd ddbdd ddddd dbddd ddddd ddddd dlddd bdldb dddbd ddddl ddbdd ddldk bbdbd ddddb ddddb 
dddxd bbbdy bdddd dldbd ddddd dddld dbddl ddldd bdddd dxbyd ddldd dbdld ddddd dddbd ddbbb bbldb 
ddddd ddddd ddddd ddldd dbddb dddbl dddbd dbbdb dbddb ddddd dddbd ldbdb dybyb ddddd bdddb dddbd 
ddldb bdddd ddddd ddldd ddddb bbdbd dbxdb bbbbd ddbbd dbddb bbddb dbddb ddbbd ddddl dbdbb dbbdb 
xdddd ddddd ddbdd bdddd ddbdd ddddb bdddb dbddd ddldd ddldb dddbb ddddb dddbd bdbdb dbddd ybbdd 
ldddd bddbd bdbdl bdddb bdddb dbdxd ydddd ddbdd ddddd dlbdd byddd dxddd lbdbd ddbdb dbddd ddbbd 
bbddb bdddd ddldb xdddd bdbdd ydddb bdddb bbdbd ddbdd ddddd dxbdb ldxbb ddlbd ddddd ddldb ddldd 
lddxd dddbd ddbbd ddddb dxldd dxldb dbddb ddddy bxdbd ddbdd ddddd ddddd dddbl ddddl dbddd ddddb 
bbbdd ddddd ddbdd ddbdd ddddd dbddd bdddd ddddl dddbb ddddd bblbx dxddd dbdbd dddbb ddddb ddddd 
ddbdd dbdbd bdddl ddbdb ldddd dddbb bdddd ddddd bddbd dbdld bdbdd ddddd ddbdd ddddd ddddd bdddd 
bdbbd ddbdd dbddl bdddb ddddd bdddb bdydl dddbb ddddd bkddb dbdlb ddbdd ddddl dddbb ddlld dddld 
bddbd dddyd bdbdd ddxdb ldbdb ddddd xddbd dbbdd ddbdd dlddd bbddb xlddl ddbbd bdddd ddxxd dddbx 
bddbl dbddd dddlb dbddd ddbdb bdddd dbdbb ddddb bddbd bdddd xdddy bdddd ddddb ddbyl bdbdd dbddd 
bdbld dbdbd ddddd ddbdd ddddd dbbdb ddddd ddbdd dbddd bbdbb ddddb ddbbd bdxdd ddbdb ddbdd dbbbb 
bdldd dbddd bdddb ddddd dbbbb blldb ddddb ddddd dxddl dbddb ddbdd ddbbd dbbdd bdddd dddbb bbdbd 
ddbdd xdbdd ddxdd xdddd ddddb bdddb ddddx ddbxb ddddl dlddd dxbdd dddbb xbldb ddldx ddddd bdldd 
dddbl dbdld blbdd ddbbb bdbdb dbbdd ddlld ldddd dbdbb ddbbd dlddd ddbbl blbdd dddby dbddb ddbdd 
ddbld ddddd dydbd ddbdd ddbbd ldldd bbddd dbddd dnlbd dbddd ddddd dldbb bxddb dldxd ddddb bdddd 
dlxbb ddbdb ddddd dddbd bbddd bddlb bdddd dbddb byddl bdddd ddddd ddldb bdlbb bbdbb ddbdd ddddd 
dbddd dbdbx bddbd xbddd bdbdd bxddd bdddd bdddb bddlb dbdld dbddb dylld dbldb bdddl dddbb bdddd 
ldbdl dxddd bdddd bdddb dlddd dddbd ddddd ddddd bdbdd ddbdd dlldd ddbdd bdbdd ldbdd bddbl bldbd 
ddddx ddbdd ddbdd dxddd bddbd ddndd ddybl bdddd ddddd ddbdb ddddd bddbd xbddd lblbd ddbbd ddddd 
ddbdd dbdld dddbd dbdbd dbddd ddddd ddddd dbbbb lbdld bdddd dddld bdbld dbddb dddbb dldbd dbddb 
dddbd ddddl ddbdb bdddb dddbb bdddd dxbdb ddddd ddddb dbdbl ddddd ddddd dbxdd dddbd ddbdd ddddl 
ddbdd dbbdd dldbd dbdbb bdddd bxddd ddddd dddbd bxbdl ddlbd ldbdd bbddd dlddd bdddl dddby ddbdb 
dxdbd bdddd dlddl dbddd ddddb bbdlb ddbdd ddddl ldbbb lbddb dbbdd ddbbd bdddl lddll ddldl ldbdd 
bdddb ddbdd dddbd ldldd dbddd dbddd xddld dbddd ddddd bdbbd bbbdl dbdll dbldb ddddb ddddb bbbld 
bddlk ddbdd ddddd ddbbb dbbdd ddddd ldxdb bbdbd bbdbd ddbdd ldddd ddybb bddbd ddddd ddbdd ddddb 
dbddd dbddd dddbd dlddb dbbdd ddddd dbdbx dbbdl bxbbd ldlld ddddl ddddl ddldd bdddd bdxbd bddld 
ddbdd bldbb bbddd ddddl xdbkd ddddb lbddd lxddd bdbdd bddbd ddddd dddld ddddb bbddd ddbdd lbbdd 
ddldb dddlb dddbd ddldd bbbdx dbddd ddbdd ldddd dbddd ddlbd xddbd dbdyd ddbbx dbxdb ddbdd dkddl 
bbddb bbddd bdddb dddbd dddbd dbbdd bllbd ddddd lddld bddbb ddddd bdbdb dbddb ddddb dbddd ddbdl 
ddbdx ddbdb ddldd ddddd bbdbd bbbld bdddd bdddd dlddd lbdbd bbddd bdldb bddlb dbdkl ddddb ddddd 
ddddd dddbd ddddb ldldb ddddd yyddd ddbdb bddyd bbdbd dddlb dbldd llddl dddbb ddddd ddddd ddddd 
dddbd ddbdd ddddb bdddd dddxd bbbdd bddbd ddddd dbbbd dbddb bdddb xdddd bdlbd dddyd ddddd ddddb 
dbddd dbbdd ddddd ddddd ddldb lbldd blbbd dbldd bbddd dbddd ddbdd ddbdd ddxld lbldb ddldb ddlbd 
ddddd bdbdy dbddl dbddd bdndd ddbbd bdbbl bdddd lbddx ddlbd ddddd ddbbd ddddb ddddd ldddd llddd 
ddddb blddd ddddb ddddd lblbd dbdbd dbdbd dbbdd blddw bdbdd ddddd bddld dbbdd bdddb ddddl dbbbd 
dblbd ddxbb ddddd dbdbb ddbdb dddbb ddddd bldld dxdxd bddbb bdddl bdbdl ddbdd dbddd dbddd bdddd 
ddddd ddddd dddyb bxddd dbddb ddddd ddddx ddddd ddbdl xdldd bdddd dlddd ddddd byxdd ddddb ldbbd 
ddddd dllbb bdddd ddddd bdddd lddbl bbldb dddbb bbldd dbddb dddyd ddddd ddbbd ddbdb ddddb dbdyb 
bdddd xbddd ddddd bdbdx blxdl ddddd dbdbb ddddd bbbbd ddddd ddddb bdldl ddbdd bbbdd dbxyd ddddl 
ldddb ddddd ddddd ddddd lddbd dlxdl ddlbd ddbdd xldbd ddddd dbbdb bbddx ddddd ddddb lddbd dxddd 
ldbbd ydbdd bddbd ddddy dbddb ddlbd ddddd bddld llbdl ddddd dlddd ddbdd xdddb lbddl ddddl ddddl 
ddlbl dddld dddbd bdbbd bdddd dbdbx bdbdd bddbd ddxbb dbdbl bdbdd ddddl dbddd dbldb lxbdb ddddd 
ddldl ddbbd ddddd blddb dbddd ddbdd ldddd bbdld ddddd ddddd ddlbb bdddd ddddd ddbdd bdlbd bbddb 
ldbbd ddddd bdddl ddddl dbddd ybdld ddbxd dlddd ddbbd ddddd dddlb dbdbd dbddd dbbbd dxddd dlbbb 
bxdbd ldddl bdddd ddddd bddld ddldl ddddb ddddd ddddd dddld ybddb bddbd ddddd ddddb dddld dxdbd 
ddldb bdddd dddbd ddddb ddbdd ddddb bbddd ddddd bdddd dbbbl dbddd bdbdd dbddl ddddd dlbbb ldddd 
dddbd bdldb ddddd dddbb dlddd lbddd dldxb dddbd dddbd dddbd ddddd bdddd bdbdy ddddb dlbbb bddxd 
ldxbd dnddd dlddd bddbd dbddx xddld ddddd ldxdb dddld dddld dlbbb bdddd kbldd dbddd dxddd bbbdd 
ddbld blddd ddddd bdldd wbbdd ddbdb dddbl dddld dbdxd dddbd bbddd bdddl dyddd ddldb ddddl bddbb 
bbddb ddddb dddbd dddbd ddbbd bdbdd ddddd ddddd dbbdb bdddd dbddd xddbd ddddb dbddd bdbbb lbbbd 
dddlb dddbd dddkd bdbdl ddddd bddxd ddbdd lddbb dbddd ddddd ddddd ddddb dddld xdbbd ddddb ddddd 
dbddb dbddb bdbdx dbdyb dddbd dbddd dlddd dddbb ldldl dbldd bdddb bdddd dlkdl ldbdd bdbdb dddld 
ddbdd ddddl bdldd bdbbd dobdd bdldd dddbb bbdbd ddddb dbddd bldbl bdbbd ddbdd dbbdd ddldd ddddd 
dbddd ddddl bbddl ldddd dbddd bdddb bdbdd ddddd ddbdb ddbdd dbbbd ddddd dddbd ddddb ddbdd ddddd 
dwddd blbdd dlddd bdldb ldbbl ddbdd ybbdd dddbl bddbd dddbl bdbdy bwddb bbbbb dldll dbbbb dbddd 
blddb bbldl dbddd bdbbd dbbdl dddld ddddd ddddd dddlb ddddd bdddl bdddl dlddb ddddd bdbbb blbbd 
xdddd dbdld ddbdd ddldd ddbdd ddbdd lddxb dbbdb ddbdd ddddd ddddd ddddd dlddd bdddd lbddd ddlld 
ddddd lyddb dbddd bdlbd ldddd dbddb ddddd ddddd ddbxd ddddd dbbdd ddbbb dllbd ddbdd dddbd bbbdb 
ddldd dbbbb ndddd bdbdd bdddd ddddd blddb ddddb dlbdd dbdlb ddbdd bbbdd bdbbd dddld dddbd bxdld 
ddbxl ddddd lbddd dbldx bdldd dddbb ddddd dlddb ddbbx bdddb dbbdd dblbd dbbdd bbbdb ddddd ddddb 
ddddd ddddl dddbd dlddd ddbdd dddbd ddddd ddbbd ddlbd bdbdb dyddd dddbd dddbd bdddd bdbdx dbdxl 
ddddd bbddb dddlb blddl bdddd bbbld dlddd ddbdb ddddb ldldb ddddb blbll ddbdd xdddd ddddd bddlb 
ddxdd bdldd dddlb ddxdd ldddd bbddd ddlbd ybbdd ddbdd dbbdl dbddb bdbdb dbbld ddddk ddddd bdbld 
bbddd ddndd dddkl dddld ddldb ddddb ddbdd ddddd ddbbd dddbl bbddd dbbbd bdbbd lddbd bddbd dbbdd 
bbbbd dbddd dddld ddddd dbbdl xddbb ddbdd dddld bdbdd ddbbb dddbd dbddd bdbdd bbydd xddbd bdddl 
bbldd ddyld bdbld ldddb bbddd dbddb ddddd ddldl bkbdb bdddb dbddd ddddd dbddd bbddd dbddb ddydl 
dddbb bdbdd ddbdb bdbdb ddddd lbdbb ddddd dlddd ddbdd ddbdl ddbdb dlddd dbxbd bdddy dddbd ddbbd 
dddbb ddddl ddldd ddddd dddbd ddddd dddbb ddddd ddxdd dbdbd ldddd dbdbd dddbd bbdbx dddbd ddddd 
dbdbd ddddd ddbld ddddb ddddd bdddb ddddd ddddx ddbdd bbddd xdddd dxdbd ddddb ydddb bdddd lbdld 
ldddb ddddd ddddb bbddx ddbdd ddddb dbxld bdddd dddbd dddbd dbddd bdddl ldbdb ddbdb dddbd ddddd 
bdddb ldbdd bddbd ddldb ddbbl ddbbb ddddd ddbdd ddbbd bdbbd dddbb dddld xdldd bdxbd dbdld ddbdd 
bdddd ddddl ddbdb bbbdb ddxdb ldldd ldlld dddbx ddddd dbldb ddbdd dddlb bdldd ddldb dbxdd ddbxl 
dddbd dbddd ddxdd ddbdd dddbb bddbd ddbdd lddld llddd ddddd dbdbb dddbd blbdd bldbd dbddd ddddd 
dddbb dddbl ddddl xdbdb ddddd lbddd dbdbl ldddd dddyb dbbbd ddddd lddbd ddddd dddbd lbbbd bdddd 
ddbdd dbbbd ldddd ldbdb ddddd bxddd dlbdb dddbb dbdbd bdddd dbbdd dddbb xddbd ddlbd ddddl ddddd 
dbldd ddddd ddbdd ddbld xdddd ddddd ddldl bdldd ddddb ddddd bdbbd ddldd dlddb bdddd ddddd ddbdx 
lbddb ldbbd dbkbb dbddd bdbdb ddddb ldxdb bbdbd ddkdd ddddb bdddl ddbdd dbddl xddxd ddddb dxbdl 
bddbd dddbd bdddd lddld bdldd dbddb dbdxd bbldb ldddd ddldd bbddl ddbdd dbldd dddxb ddddd ddddd 
blddd dddld ddddb bdbdb dbldb ddddd ddddb bddbd bbddd dddbb dbddd kdbbd xdldd ldddx bbdld dbbdb 
dddld dllbb bddbl kddbb ddddb ddddd ddddd bdddb dbbbd ddddd ddddd ddblx dbddd bldbd ldddd dxddb 
dddbd bbddd ddbdb lddbd dbddd lddbd dddld dxddl bdddd ldlbb ddddy dbbdd ddddd dlddb dbbdl bbddb 
dddbd ddddd dddbb ddbdd ddbdl ddddd ddbdd ddddd ddddb bddbd dbddl ddddb bdbdl ddddl dbddd dbddd 
dbddl ddddd ddldl dbbdd dddlb ddddd bdddd bbddd ddddd bbldd ddddd dbdbb ddbbb ldddd bddbd ddbdd 
dbbdd lxddx dddxl blddd dddxb ddbxd dddyd bldbl xbxdd ddldb ddbbd dbddb lddld ddddd bdbdd ddldd 
ddbld bbdbb dbxdd dddbd dbddd bdldd ldbdd ldddy bdbbb lddlb dbddb ddddl dbbdd ddddd ddybd ddddd 
ddddd dbdkd dddbd bdddd ddbdd ddbdd lddbd ddddb ddbdl ldldd xdddd dbbdd ddldd ldddd ddbdd dbddb 
dbbbl bdlbd dddbd ddddd dlbll ddbbl dsddd ddddd dbdbb dbddd dbddb dldbd ddbdd bbddl ddydl ddddd 
bbddl ddydd dbbbl dbddb bddxd dbdbd bxldd dbddd bbddd dddbd ddddb ddddd bbddb bdbbd bdddx ddddb 
dbdlx dddbd ddbdd dxlbd ddbyx lbddd bdddd ddddd dbdbd dbbdd ddddd bdddb ddbdd ddbdd bddbd dbbll 
dbdbd dbddd ddddd dbbbd ydddd bbddd ddddn bbdbd bdddd ddddd ddddd lddbd bdddb lbbdd bdbdd bdddd 
ddbbd ddddd dddld bddxd ddddb dddbd blbbd dddbl ddddy ddddd ddbdb ddddd ddddb ldddd bbddd lbbdd 
bdlbb ldddd dxdll dddbd bdbld xddbd ddldx ddddd dlbbd dbbdd bddbd dbdbd bdxdd bdbbd dddbd dbddb 
bbdll bbdbd blbld dddbd ddddl ldddd bdydb dbdlb dddld ddbdd dddbb dddbb dbldd ldbdb dxddd ddldd 
dldbl ddddd ddddd ldddb ddbbl lldbd ddddd ddddl bbdyd dbddd ddbdd dbddd xdddd dddbb ldbdd dbdbx 
dddbl ldddb ddddd bdddd dddbb dddbd ddddd ddddb ddddd dddbd dbddd ddddb ddbxb dbddd bddbb ddddb 
dlddd ddddd bbddd dbbbb lddbb ddddb ddldd ddldb dbddd dbddd ddddd ddddl dbdbd bddbd ddddb dbddb 
ddddd bdddd ddbxb bdbdd bdddl ddddb ddddb ddldd ddddd bnddd ddddd bbddb ddldd ddbll bdbdb lbddd 
bxbdd bdddl xdddd dbddb dbldd dbbdl ddddd dbddd ddddd ddbdd bddld ddbdd dlbbd ddbld ddlbb ddbld 
bdddd xddbb ddddb dbddd dbxdd dldxd ddddd dbdbd dddbd xdddd bbddd bdddd dbdld dbddd ddbdd dbddd 
ddddd dbddd dbddb ddbdd ddlbd dbdbd dbddd bdddd dddbd bdlxd ddddx dbdld bdbdb ddlld ddbdd ddldd 
xdddb ddbbl dbddd ddddb ddddb ldldd ddddb ddddd xdldl ddddd bdddb bdbdd dddbd bdbdd bdddd bdddb 
bdddd bbbdd bbddd ddbdd dddbb bbddd bbldd lbldd dddbx bdddd ddddd ddddd dbbdd ddldd bbxdd ddldd 
dddbd dddbd bbbbb ddddd ddddd dxbdd dlddd bbddd dddnb xdddd bbdbd ddxdd ddddd blbbd dbkdd dldbb 
ddddd ddddd dddbd ddddd ddddb ddddd ddddd dbddd xdbdd dbddd dldld dbldd dddbd dlddx dddbd dddbb 
dbbdd ldbxd ddddd dddbd dddll dddbd ddlbb ldddd ldldb ddlbd dbbdd kddxd ddddb dddbb xdddd bddlx 
ddddd xddbd bdddd dddkl dbddd dbdbd ddldb bdbld ddlld ddbdd ddddd bdddd dbxdd dddld dldbd ddbdb 
dbddd ddddd lddbb xddll ddbdd bbddd bddbd ddddd dddbb ddddx lyddd bdddl dlbdd dddbb dxddd dddlb 
dlddl ddbdd ddxdd dlddd dbddb bdddd dbbdd bdddb dlddd ddbld ddbbd dbdbb bdxdd ddbld dlbdd ldddd 
llbdd ddbdd ddbdd dbydd dbbdd bdldd dbdld bbddd dddyd bdddd byddd bdddd ddndl bbbdl ddddd dddld 
dddll ydldd ddddd dyddb bddbd ddlxd ddbdd dddlk dbddb dbbdd dbldd ddddb ddldd ddldd ddddd ddddd 
bddbd dddbd dxdbd ddddl ddbdb dlybx ddbdd dxybd ddddd bdbdd ddddd ddddd xbbdb bdlbd ddbdd bddbd 
dxddb ddbdd dbddb dbddd dddbb dxbdb dddbd dbbdd ddldb ddxdl ddddd ldldd dbdbb dbddb ddddb ddlbd 
ydddd ddldb bdlbd xdddd dbbdy bdbdd lddbd ddkld bdddd bdddd ddddd ddldd bddld ddbdd dbdld dddkd 
ddddd dlddd bdddb dddbd dddbb kdddd xddld ddddd ddddd bdddd dbddb bdddb dlddl dlbbd ddddl ddlbd 
bdbbd dldbb ddddd ddddl bddlb xddbd bdldb dddbd dbxbb dbbbd bbbdb bdbbl ddddb dddbl dbbdd xdbdd