aaaaa dfadf aaaad aaaaa adada aaaaa afdaa aadab dafbd adafa fadad aaaaa aaada faaaa aaaga aaaaa 
aaaaa aaddf aaaaa dadda aaada daaad daadb aadaa aaadd aaaaa aadda aaada aafad aaada afaaa aaadd 
daaaa daaaa aaaaa aaadf ddaaa aaaaa baaaa daaaa aadda ddadb aaaaa aadaa aafaf aadgd fafaa aaead 
daaff aafad aaddf aaaad adfaa addda aaaaa aaaad aafaf faaad daaaa adaaf adfaa dddaa adaaa daafa 
daaaa aadaa aaaad aafga aaaaa daadf aaaad aaaaa daaad daaaa aaadd aaaba daaaf faaad dfaaa ddbof 
aaaaa daaaa aaaaf daaad aadga daaaa baddf faafa adafa aaadf aadaa dddaa agaaa fdaaa daaad ddaaa 
aadaa gbada dafda bafda afddd aaaaa faaaa aaaad aaaad aadda aaaab afaaa aaafd aaagg faaaa aaada 
daaaf aaaaa fadad daadd aaaaa daaad aaaad ddaaa aaaab aaaad dadaa fdaad dadda bdaad daaff aaafa 
daddd adada fdaad aaaaa aaaaa aaaaa daafd aaaaa aagdf agddd adaad abddb aaada ddaad aaaaa aaaaa 
aaabf fadad bddaa daafd daafa aafaa daddf adaaa aafaa ddaab aaada aadoa aaaad adfad dadaa dfada 
fafad aadaa aaaad daaaa dddag faaaa adfad adaaa dafad adaad aadaa aaaff dgddd dfaaa aaada aaddd 
baaaa dbaba aaaaa aaaaa aaaba abfaa adafa aadaa adaba badaa aaaaa aaada aaafa aaaaa ddaad aadda 
ddaaa aadaa aaaaa daaaa adaaa afaaa ddbaa aaaaa daaaa afaaa ddaad aadda fadaa dadaa aaaaa aaaaa 
aaaaa daaaa aaaba aadfa daadd faaaa faada afdaa aadda aafaa aagaa adaaa aaaaa aadgd agaaa aaaaa 
gaaaa afdaa fabda aaaaa dafea aaaaa adaad aafaa aaaaf aabda aaaaa aadab faaaf gddad daada bafda 
faaaa aaaaf dafad aadaa adaaf ffada affaa aaada daaaa ddaag aaaaa dfada daaaa daaaa aaaaa ddaaa 
baaag aaadd ddaaa ffdaa dadaa abaaf aaaaa aaaaa aaada aaaad addad daaad aaaad daaaa daaaa abaaf 
aaaaa aaada dafda aaaaa addad aaaaa aabaa fadaa aabaa dabda dddda addaa ddaaf dbaaf aaada bfada 
dadda dgada addad ddada aadad aaaaa dafaa aaaaa dadda aaddd adaad daaad faaaa aaaaa aaaaa faddd 
aaaga baaaa adaaa faada dafaa aaaaa fadaa aaaaa daaab fadaa aaaad adaaa adaaa daaaa aaaad ddafa 
aadaa afaaa addaa dadab aabaa aaaaa aaaaa gdaad daaaa dgaaa ddaaf abafa aaaaa adaaa afaaa adaad 
aaaaf aaaad dadaa addad afafa afaad daaaa aaaaf daada aaagd aaddd daddd aaaaa fbaaa aaaad aaaaa 
dddfd aaaaa dadaa ddafa daaaa aaaaa adada afaaa aadaa faaaa aabfa aadaa daaaa faaad agfdf aafda 
aaaad daaad afaaa dafaa aagda aabaa addad abdaa aaaaa aaaaa ddada aaaaa aadaa daada aabad aeaab 
afdae afadf aafaf aaaaf dadaa aafaa dfaaa aagaa dfdaf dadaa aaaad ddada aaaaa aaaad aadfa afaaa 
aadba aadaa aadaa aaaaa addda addfa aaaad addad adfaa aaaaa aaaad adaaa aaaaa dddaa daada aaada 
aaaaa aaaaa aabdd addaa dfdda faaaa aaadf daaaa dfdaf dddaa ddaaa daaga aadad baaaa aaaaa aadaa 
adaaa dfabf aaaaa daaaf aaada dfbda dadad aafda baaaa aaada aadba aaaad daaad fabda daaaa aafaa 
dfaaa aadaa afaaa dbada aaaaa daaaa aabaa aaaad adadf agaaa dddda aabaa aaaaa aadaa daaad aadfd 
aadaf dadaa aaaaa aaaao dfdaa aaddd adaad aaadd aadaa abaaa baaaa aaaba aaafa faaaa adafa aadaf 
aaddf adbaa faaab aafaa aaadf aadad ddaaa adadf adaaa daafb daaaf aaaaa aaaaa aaaaa daaaa faaaa 
aadad fddfa adaaa gaafa aaaaa adaaa afada aaaba adaaa aaaad faadd dafaa dadaa aaaaa dfaaa aadaa 
dabaa adaaf daaaa aaaaa baaaa aaaaa ddada adaaa aaaaa ddaad fdaaa aaaaa aaafa aaaba aafaa adaaa 
adaaa aafbd adaaf aadaa aaaaf daaaa daadd aaadf dadaa adada aaagd dabfa aaaaa daadd aaaaa addda 
adadd daaaf afaab adaab aaaaa ddfbd aadaa adaad faaaa dbaaa addaa adaaa aaada dadaa aaaad aadaa 
daaaa baaaa afada aaaaa aaada daaaa adafa aagaa aaadd daada afaaa aaaad daaaa adaaa aagaa ddaad 
faaaa fdaff afada aaaab ddada aaaaa aaaaa aaaaa aadaa abaad adaad aafaa daaaa daaaa aaaaf aaaaa 
dagad aadaa adaaa aeaaa aaada aaaad aadfa aaadd agaaa aafaa ddgad addaa aadad fdaag adadf fdddd 
aabda aaaaa adaaa adaae adfaa daaaa dafaa deada aadaa fadab ddaad aaffa afdag aadfa adafa afdad 
aaaad aaaad daaaa afdfa aaaaa addaa aaafa aaaad aaaaa ddaaa daaaa aaaaa faada adfaa adaaa adaab 
adaaa adada faada daaad aabda dddaa aaaad aadaa adaaf aaaaa aaaad doaaa ddaaa ddaaa aaaaf aaaaa 
faaaa deaaa aaada aaaaa faaaa aaaaa aaaaa aaafd adaaa daaaa aadaa aadaa afada aaaaa afaaf aaada 
aaaaa aagda dadda adaaf aaaaa aaaaa aafaa daadb aaafd abaaa aaaad adaaa aaaaa baaaf aaaaa aaaaa 
adaff daaaa aaada aadaa dadaa abada aaaaa addaa adddd dfdaa daaaa aaaaa aadaa aaafd aaaaa aadaa 
aaaaa aaaaa aaaad aaadd aafaa aaaaa aadda gadaa dadfb aaafd adadd aadda aaaaa adaaa aaaaa adaad 
gadad aafaa aaaba gaaaf aaada faaaa aafdd aaaaa aaaaa badbd ddgad aafad fdaaa aadaa adadd aaada 
adaaa fadfa aadaa aadfa adada aaaaa aadad afdaf aafda faaad aaafd ddaad daaaa aaaaa aadfd fadad 
abadd aaaab daafd dadad adaad daaaa adddd aafaf adaaa aafaf afaad aaaaa adaad faagf agaad aaaaa 
dadaa aadaa addfa aaaga aadaf gaaaa aaaaf daaaa aaaab dabfa adaaa aafaa ddaaa aaada bdaaa aaabf 
aaaaa aaaaa daaaa aaafd daaga bddda aaada daaaa bdada daaaa aadab ddfdd aaada aaaaa aadaa aadaa 
daaad aaabd aaddf aaafa aaaaa daaaa adaaf addfa dfdfd ffada aaddb afdad aaaaa aadda aaaad aaddd 
baaad dadaa daaab aaaad aaaaa aadda aaaaf faada daaaa adfda aafda aadda ddfaa aaaaa daadd ddaaa 
dafda aaaaa afaab dadaa addad aaaaa aabda eaada bdaad aadaa aaaaa adaaa dabad aaaaa dbdaa aabda 
afdrf addaa aaaad bddda aaaad aaaaa aaaaa abadd dabaa aaaaa aadaa dbadd aaaad faada dbdad dafaa 
faadd daaaa aaafa adaaa adaaa daaaa adaad afaaa addaa afaad adaaf ddaad baaaa aadda aaaea ffdaa 
aadaa aadaa aaada abada afaaa daaaa adaab aafaa dddda adaaa fadda addaa aaaad aafda adaad aafaa 
dfaaa daada aadaa aadaa fdaaa abaaa ddaab dafaa daaaa aaaad addaa aadfa gdafa aaaaa aaaaf fdadd 
aaaaa aaaaa aaaaa daadf aaadd bfaaa dadaa aaada aadbd afaaf aaaaa faadd adaaa fadfa aabda adada 
aaaaa ddaad dfaad dadag adadd daafa fddad adaaa adaab aadda aadaa aafad aafda aaada adaba dadaa 
aaadd dadaa adada aaaaa dffba daaaa ddddf aafaa aaafa dddda fadaa aaafa aaaaa aaaaa fbfag dgabf 
daada bafaa afada aadaa aadda aaaaa aaaab aaaga fafdd abaad aafaa adaad adgda fadaa aaaaa dfdba 
aaaad ffdad adaaa dfaaa aduaa aadda dadda adaad afdaa dadad aaaad afada aaaba aaaae dafda aaada 
aaddd aaada aadfa dadaa ddada aadda aaaad addaa adadd dbdaa dadda aaada aaaaa aaadd adaaa fagad 
faaaa dadba bdaad aaada faadf aaafa adaad afaaa aaadf aaaad ddaaa afaad aadaa aadaa aaaaf daffa 
daaad faaaa dafaa aafaa afaad aadaa aaaaf aaaaa adaaa aaaaa faaaa fdada aafad aaaaa aabaa aaaaa 
aaafa ddaaa aaaaa dadaa ddaaa aaaaa adada addag aaada aaaaa aadaa faaaf aaada ddaaa addaa daaaa 
faaaa dadaf aabad aadaa aaaab aadfa adfaa aadda daaaa aaaaa daaaa adddd dadda adaaa daaaa aaaaa 
deada ddaaa fdaba daaaa agadd daaaa aaada aadff aadaa dddaa aadag daaaa aaafa aaaaa aaaaa aadaa 
aadfd dddaa daaaa aadda aaaaa aadfd aaaaa aaada aaaaa aaaad aadda addaa aaada aaaaa adaaa aaaaa 
faafa dadaf adaad addaa aaada aaada affda aaaaa ddfaa adaaa afaaa aaadd aadaa addaa aaaaa adaad 
aaaaa gadda adaaa aadaa adfaf addaa aafaf aaaaa daaaa eadaf adaaa faafa aaaaa aaada aaada dadda 
aadaa badda aaaad aaaaa faddd adaaa addag aadaa aaaaa agaaa dddab aadaa aaada daaad aafaa daaad 
adada daaaa faafa dddaa ddada aaaaa aadad aaaaa dddaf adaaa aaddf bddaa fdada addaa aaddd aaaaf 
aaafd aadaa aaaaa adadf aaaaa aaaaa aaaaa dadfa aaaad aaaad dbafa addaa aaaaa faaad abdaf fadfa 
aafaa daaad aaada ddeaa daaaa aafda adfaa afdda dadaa afdaa aadda dadfa ddaaa aaadf afdda aaaaa 
aaaaa aaaaa faada daaaa faafb aaaaa ddafd aaaad aadaa daaaa aaaaa aaaad aaffd dabaa abaaa adfdd 
adfaa dddda adaaa addaa aafaa afaab aaada aadfa aaaad daaad baafa faaaa aaaaa daada aaaaa aeddd 
aaaaa agaaa adaad dadaa aadaa aaaaa daaaa adaad aafaa aaaad aadaa aaaad daaad afaaa aaafa addaa 
adaad dafaa aaada afdda afaaa daaaa aadfa agfaa aaabd fdaaa aaaab dbaaa dadad daada aaaad aaaad 
aafaa aadda aaaaa abada aadaa aaaaa aadaa aaaaa aaaaa aaaaf aadaa adaaa aaafa aaaaa addfd aabaa 
dfdba adafa aadaa aaaaa aaada addda dgaaa aadaa aaafd daaaf aaaaa aaaaf aaead aaaaf aaada faaaa 
dfaaa aafaa aaaad addaf dabaf aaada adada aaaab aadad aaafb ddaaa aadda adaaf affda aaafa aadaa 
ddaaa aaaaa badda aaaaa aaeaa aaaad ddaff afaaa adaaa aaaab aaaaa fadda adadd abdaa afada aadfa 
aadfa aaaaf afdfa aabad ddaaa aaaaa aaaad aafad aabaa aadaa aagda aabfd aadba fadab aabaa adaad 
daaaa afaaa aafdf dadaa aaaaa adbaa dfaaa aabaa aadaa aafaf aaaad daafd aaaaa ddaad aaaab afaaa 
adeaa aaaaa aaaaa aabaa aafad aaaad daaaa adada afaaa faddd adafa aaafd daaaf aaaad daaad aadad 
aafaa aadad ababd aaaaf aaaad fdaad dddda doaaa aaadd gaaad aaaad gaaaa aaadd daaaa aaaaf adgga 
aafaa aaada dadad daaad adadb aaaaa ddaaf aabda aaaad aadfa aaada afadd daaaa aaaaf baaaa adaaa 
aaaaa aaaad adaab aaaaa aaadd aabef aadad aaaaa addfa aadda aafaa aadfd aaada aadda waafa aadad 
aadaa afdda aadbd aaaaa aadda abddd fdaaa aaaaa adaaa aaaaf aaaaa adaad daaea aaaad faadd adaaa 
abaaa aadff aadad afaab faada aadaa ddaad addaf baaaa fdada faffd ffada aaffa ddaad aaaaa afada 
daafa daaaa aaaae ddada adffa adaaa ddada aadba ddaaa aaaaa baaaa aaaaa daaaa adada fdaaa aaaaa 
aaaaa daafa aaaaa faada adaaa aaafd aadaa aaada aaaae adaaa adaaa abfda ddafa adaaa aaaaa aaaaa 
aaaaa aadda aaaaf daaaa dadad fadad dafaa afaaa afaab afaad faada faada aaadd aafad dadaa adaag 
aaaaa afdaa agdad adadd aaada aaaad fdaaa eaaaa daaaa aaadd adada daaba fafaa aaada addaa faoaa 
aafda dadaa addga daffa aaaaa aaada aadaa affaa daaba aaaad aaaad faaaa agaaa aaaaa adada aaaaa 
adaaa adafa aaaaa dadaa aaaaf aaada faafa aaaaf aaadb aadda aadab daaaa aaaaa gaaad aaafa ddaaa 
aagda ddaaa faadd afaaa aaddd dfaaa daaaa aaaaf ddaad agaaa aaffa aaaaa aadad dddaa dddaa aaaaa 
aaaaa addgf adaad daaad aaafa aadad aaada aaaaa abaab dadfd aaadb aaada daada addda afaag aadda 
addda faaaa fadaa aafaa aaadd daaaa daaaa aadaa faaaa daafa aaada aaada adaag afaaa aaaaa adafa 
aafaa faaad aaaad aadaf aaadf aaaaa aaaad aabaa aaada afadf aabaa aaadd daada bfaaa faaad aadaa 
aadaa dgaad aaaaa daaaa afaad adaad adada daaaa dadaa addda addaa addad adada bddfa aaaaa abaaa 
adaaa aaaaa dddaa faaaa aabdd daadd aaaae ddaaa daaad abada aafaa aaada aafaa affaa ddaaa aaaaa 
aadaa aaaad adbad aadaa aadaa faafa dadaa daaaa aadaf aaaba aaaaa aagab baaaa aaaaa daaaa afdda 
daada badda gaaaa faaaa adaaa aadaf bdafa aaaaa afaad afaaa ddfaa aabaa aaada dfdaf dadaa aaaaf 
aaaaa aaaaa aafad addaa aadaa adbaa agaaa aaaad afaaa ddaaf affba addad aaaaa daaaa baaaa afaaa 
aaaaa adaaa fdaaa daaaa ddefa aaaaa aaaaa aaadb aaddd adaaa dafaa aadaa adafa adaaa adaaa adaaf 
aadda aagaa adaaa aadba fddfd faaaa afdaf afaaa babaa abdba daaaf afada gaaaa daaaa aaaaf aaaad 
aadaa aadfa dadaa aaada ddaad aaaaa dadaa dfaff aaaaa gadda faaaa dgaad adaaa addda aadad fdebd 
ddaaf aadad afaaf dafaa adaaa aaafd ddaad aaadd badda gaada aaaad aaaaa aaaaa aaaaa aadfd aaaaa 
daddb dadaf faaaa afada aaaad adadd dbaaa adfaa aadad afada ffdaa daaad afaaa aaadg dadda aaaaf 
aaaaa dffaa dadda adaaa aaada dbdaa addaa aaaaa aafaa afadd aafaf daaaa afafa badaa abada daaaf 
adadd aaaad adaad dafaa faaag ddaaa aaada aaada daaaa aaaaa adaaa adaaa aadfa dadaa fbfda daaab 
daaaa aafaa aadaa faada daaad aaaaa baaaf aaaaa afaaf adaad ddaba adaaf adada adaad fdffa aadaa 
aaaaa daaaa aaadd daaaa aagad adaad dddfd aaaaa aaaaa aadaa aadda aaaad ddaaa aaafa daaaf aaddd 
adaaa aaaad adaaa adaaa daaaa gadaa aaaad fdaaf aaaaa aadad daadd aadda aaaga adaad aaaaa aaada 
aaafa aaaaa fdaaa daaaa aaaaa daaaa bfdda daaaa adaaa aaefa aaadd bfaad aaaaa bddaa aabaa aaada 
aaaaa aafaa aaaad gaadd faaaa aaaaa ddaaa aaaaf aaaaa aabda aaaaa daafa aaaaa aabaa aaaaf aaaaa 
badad addfd aaaaa aaaad dadfd aaaab ddaaa dfdaa aaaaa aaadd aadaa aaaaa adaaa aadad aaada adaaa 
ddaaa adaba aaaad adaaa aaaaa faafa adaaf daaaa aaadf aadaa adaaa afada adada aaada adaad daaaa 
afaaa faaad aadaa dfaaa afdaa addaf dadda ddaaa aadaa ddaad aadad dadaa adadf abaaa aadaa aaada 
aafaa daaaa adaaa daada aaafa dadaa ddafa ddaaa daaad aaadd fdaaa adadd aaaaa aaada daaaa addad 
aaaba aadfd daaba fdaaa adaaa addaa daadd aaaba aadaa aaada aadad dabba ababa daaaa aaadd daafb 
aaaaa daaaa aaaab fdada agaaa aaada addaa aaaaa dadda aaaaf daada aaada dadaa dafdd adada adaaa 
aaafa aadfa daaff bafad aaaaa aaaaa gdaaa aaaad dfdda aadfa ffadd ddadd faaaa abaaa adaad abdag 
ddfag aaaad daaaa adaaa daaaa adfaa aadad aaaad aaaaa fdadd aaaad ddaba faaba adada adafa aaafa 
aadad ddaad ddaaa aaaaa ddaea adaaa adadf aadaa aaaaf ddaaa aaada aadaa ddafa dddau aadad aaadd 
aabfa daaaa aaaaa aadaa aaaab affaa aaffb aaaga faadd fadda aafaa aabad adafg aaaad adafa aaaaa 
aaaaa adaaf aaaaf adaaa aaada aaaaa faaaa aaaaa daaaa aaaaa aoddf dfaaa daaaa afdfa aaaaf faada 
aaaad dddda dadaa adaaa aafaa daaaa aadaf aaaaa aaafa adaaa bdaad aadaa fbaaa aaaaa aadaa aaaaa 
afaaa aaaad daaaf aadaa daaaa faaad daafa aaaaa aaafa adbaf daagf adfaa aaaba faada abafa aaaaa 
aabaa daada adfda aadaa aaaad addaa aadab aaada daaad daafa adaaa aaaad aaabd aadaa aaaad aaada 
adaad aaaaa adada aaaad ddbaa aaaad aafab daada aaaad adada aaaaa adada addad faadd adaad aafaa 
adaaf aaada bbabb aafda dadad aafaa dagaa adaaa ffaaa dadaa aabaa aaaaa aaaaa adaaa eaaaa adfda 
aaada aaaab addaa daada aadaa aaaad adada dadad dfddd aaadf aaaad daaaa dfaaa bdafa fadda aaaaa 
fdfaa daaaa aaaba aaaad aaaaa aadea daaod adddf adada daaaa aagaa daaba aadad afaaa daaaa afaad 
aaadd afada adaad faada aaada fagad fdaad adaaa aagaa aaadd adgaa adaaa afada adaaa daaab aadda 
aadaa aaaaa aaaaa aadad aaaad fafda afbba afaaa fadad daada aaaad afaaa fadda adaaa fdadd aaaad 
aaaaa dadff ddada fabad ddada eaafa agaaa oaaaa aadaa aaaaa bfafa daaaa aadaf abdaa adaaa addad 
fdaad daaaa adaaa fdafd aaaaa aaaaa aaadb dbafa daaaa aaaad daafd daaaf aaaaa aadaa addda aadaa 
fdddd aaaaa aaaaa aaaaa aaaaa aaaad aaaaa aaaaa afaaa aaada aaaab adaad dffaa aaadb bafaf baadd 
ddaaa daaaa abaaf aaaoa daafa baaad aaadf fdaaa faddb aafda aafda afaaa afdda aaada aaaad aadfa 
aaaaa daada dddaa aadaa aafad baafd aaaag abafa adaoa adfaa aaada adaaa aaaad daada aaaaa bffad 
fabfa afaaa dfaad daaad aaada aadaa faaaa daadf daaad affab abdad faada adaaa aaaaa afdaa aaaaa 
dfadd aadff dadda aaaaa aaaad dafaa aadda aadaf afead daada daaaa daaaa aafaa aaada dbddd aaaaa 
dafda fdaaa aaaga ddaaa aafaa dadad aaaaa afaaa aaadb abdaa dfaad daafa addda baada afabd ddaad 
aaaaa aaaaa aaaaa aadad dadaa aaadf baaaa aagfa adada daaaa aaddd aaafa daada aaaaa ddaaa aaadd 
aafaa aadda adaaa adfaa aaaad afadd aaaaa aaaaa ddaaa aaafb adaad aafda aaada adaaa agaaa aaaad 
aadad adaaa ddaaa adbda aaada faaff dfaaa daaaa daaaa dfaad daffa afdaa aaafa adaad aaada aaaaa 
aaaaa adaba aaaaa adafd aaafa adaad adfbd adaaa aaada adaad fdaaa aaaaa aafda adaaa aaaaa aaaaa 
dadaa aadaa aadaa aaaad adada dafad aaafa adaaa daada aaaaa dadda aafda adaad daadb dadda faada 
daafa agaaa fdfda adada aadad ddadf aaaaa daaaa aaadd adfdd ddaaa adabf daaad aadaa aaaga ddadd 
aaaaa bdfaa aagad aaaaa adfad aadaa faaaa adfaa aaaab fagaa aaada adbfa baada aadaf daada adaaa 
addda daafa abada aaaad abdbf fddaa adaaf aaaaa ddada dafaa dadda dgdaa aaaaa bdaaa aafba ddaad 
aadff aaada abaaa agafa aaagf dadab faaad ddaaf daafa aadaa aaada faada ffaaa dbada aaaaa bdbdd 
dafaa aaaaa aaaaa daaaa daaaa aaada adaaa ffdaf daada aabaa daaaa aadaa daaad addaa aaada dadad 
daada aaaaa adfaa fafaa dafaa aadab aafda ddada aadad faaad dfaaa daaaa fdaaa afaad aaaba abada 
aaaaa aadfa adddf aadaa aaada faada aaaaa afaaa aafaa adaad adaad afaaa adada aaaaa badaa daaad 
aaaaa dadda addda fdaaa aaaad afdaa dadaf gaaaa aaaaa aadda fdgaa aadaf aaaab gddaa adafd aaaaa 
aaada adaaa dfaba dabad daaaa faaaa ffada afafa faaaa aabaf aaafa daaaa aaadd aaaaa abada aaaaa 
adfda aaafa aadda adaaa fdaad dddad daaaa faada fdaaa adada aadda adaaa addad aaada dadag aaaaa 
dadaa afaaa adaaa daaaa adaaa adaaa aaaag affaa ddaaa aadaa aaaaa daaaa dddga abagd faada aadaa 
aeaaf adada adfda aaaaa adaaa ddafa ddada aaaaa afdaa afabf aadad abdaa aadaa aaaaa daaaf addaa 
aadaf aaafa faffa daaaa addaa adadd adddb aaaaa adaad aaaaa adaaa dadad agaaa aaaaa aaaaa daada 
dadaa aaaaa aaaad aaaad fdaaa dadad aaaad aaaaa aaaaa ddaaa adada adfad daada aaaad adaaf uafaa 
aaaaa dfaad dadad aaada aaada daddb aadad ddaaa afaaa aaaaf daaaa aaafa odabf daaaa faaaa adaaa 
aaffa addda aaaaa aabaa adaad afaaa aaddf adada aaaaa adadd aadad adaaa fafad baaaa aaaaf aaaaa 
aaada aaaga aaada daaaa fdaaa aaafa aaaad adaad aadaa aaaaa ddada faafa aadfa aaaaa aaaad ddadb 
aadaa ddafa abdda daaaa adada gadfd daafa aaafa aaaaa aaaaf aaaad dadda aaaaa dadfa afaad adaad 
daaaa aaaaf aaaga daaaa aaaab bfbaf aaaaa aaaaa adaaa aaaaa aaaaa ddaga adbaa aaada ddaaf ddafd 
aaaad faaff aaafa aaddf aabab aadaa daadf dadaa adaaf daaaa aaaad dfdda aaaaa aaaaa afaaa dadaa 
aaaaf aadaf aaaaa aaaaa adgaf afdaa adbaa aadgg aaaaa daadd afaaa adaad aadda aadaa aaada adaad 
afadf baada ddfaa aaaaa daaba aaaae aaaaa dadaa adaaa aaada dagda aadad dfaaa aadad dadaa aaaef 
ddada afaaa fdbaa aaada fdfaa aaada aaaad dgaaa adaad aaaad aadad afaad aadad aaafa fdfaa adada 
aaaaa dddaa aafaa aaaaa aaaad aaaaa aadad aaaaa aaaaa ddada faaff aaada aaaab aadaa aaadd aadaa 
dadaa aaaaa faafa aaaaa addad adaaa aaaad aaaaa daaad adaad aaaaa aaadb badfd aaaad adaaa aaaab 
daaaf daaad daaaa daafb aaaaa afdaa aaafa aaaaf faada daafd aaaaa daaad aadaa dadda adaaf dfaaa 
adaaa addaa afaaf aaada aaadd adaaa aaaaa daaad daaaa aaaaa affaa aadda aaada adada aaada aadaa 
adfad dddaf fadad daaaa adaad aadab aaadf aaafa aadfa aaddf daaad aaaaf aaadd adada aaaaa daaaa 
aaaaa daaaa aaaga adaad afaaa adaaf ddaba aaada aaaaa addaa baaga daadg aadfa aaada daaaa adaaa 
daaaa aafad dddaa ababf addaa edaaa dddad daaaa ddaaa aabad adaaa aaaaa ddaaa aaaaa adaba adada 
ddada aaaaa adaaa daada aaaaa aaadf faaaa afabb aadaa dafaa aadda adada adaaa aaadf ddaaa addaa 
dadad adaaf ddaaa adaaa aaaad afdaa aadfg aagaa uaaaa aaafa addaa ddaaa aafaf aafaa dafad aaaao 
aaafa adaaa bfaaa addfa adaaa aadfa afaaa afaaa abdda aadad afaba adaaa aafda addaa adada aaaaa 
adaad aaada ddaaf baaaa adaaa faaaa aafaa fadaa fdaaa aadaa adaaa dbdaa addbf aafaa dfadb aaaad 
dddaf adffa adaaf aadea fadba aadaa aadaf afgaa aafaa faaff aadda affaa faaaa daabf aaada dfdaa 
fddaa afaaa aaaad dfaaa aaada afaaa daabd adfdd aaaaa aafda faafa aaafa aaadd aadff aadaa ddgad 
aadba daada aaaaf addaa dabdd aadaa dadfa aaaaa faaaf daaaa baaaf faadf aabba aaaaa adaaa aadag 
adaaf aaada aadaa dddad aaada dfdaa aaada aaafa aaaga aaaad adaaa aadaa daaaa aaafd adaaa adada 
aaaaa gddad aaaaf aaaaa aaaad ddaaa ddfdd aaaad aadad daaaa aaadd afdaa aadfa dafaa daafa aadaa 
aadaa aaada aaaaf dafad ddada addaa aaaad aaaaa aaada aaaau dafaa aaaaa aaaaa daaaa fafaa aaadd 
afdba aaaaf gadad adaaa aaaaa daaaa daaaa dbfda dadaa aaadd adaad adaab dfaaf aadab daaaa dadaa 
aafad adaaa aaafd ddaaa gaaaa aaaaa aaaab aafdd aaaaa adafa bafda aaaaa aadaa aaaad ddaad aaafd 
daaaf aafaa aaada addaa aaadd ffaab adaaa bafaa gadbf odaaa aafdf dabaa aaaaf daaaa dfbaa adfda 
aafdf daaaa adaaa aaaba aaadf aadad dddaa aaafd aaaaa aaaad aafad adadd aaaaa affda addaa aaaad 
afbaa aaafa aaaad dadaa ddadd afaaa daddb dafaa dadad adfdd dfaag adaaa ffdda aadaa aaaaf aaaaf 
adaad faaaa daefg aafaa daadd aaaad aafad adadd aaaaa aadaa adbaf dabaa aaafa ffffa adaaa aaaaa 
aaaaa adaaa aadaa aaada afadd bdadd daaaa agdaa daddf aabaa aaaaa aaaaa aaada aaada aaadf aadfa 
daaaa aaaaa aaada afdaa aaafa aadad aadaa aadaa adada aaada daada aaaaa aaaaa aaaad agaaa dadaa 
fabad aabda baaaa aaaad daaaf fdadd fddaa dadaa dddfa aaaaa dadab dfaaa adaaa aadaa fagad faaad 
daaaa addaa faaaa afada aaaad daaaa faaau aaaaa dafda aaaad aadaa dadaa fdaaa faaba aaaaa aaada 
daafa aaaaa aaaad aaaaa daaaa ddaad adafa aaadd aaaaa dadfd daaaa daada aaaaf ddaaa ddada dadaa 
daaad aaaaf addaa fdbaa gaaad ddadd daddd aadda aaaaa afada aafad faaaa ddaaf daafa dagdd fdaaa 
aaaaa aadaa aadaf aaada faadd aadad aaada aaada aadaa baadd aafaa daadf afafa aadfa dadaa aadaa 
daafa adaaa aaaaa aadad aaafa addaa aaadd aaada daaaa aaddd aaaaa dbadb daaad aadaa aaafa aadoa 
aaada aaaaa dddaa aaada ddadb fbaaf aaaga dadad aaaaa eeafb aaaaa adada aaaad aadaa adaaa daada 
aaaaa aaaaa adadd addba dffad adaaa addaa abaaa agddd aafaa adada ddaaa daaaa faaaa aadaa aadfd 
dadda dafda aaadd faaaa adaad afado dadaa abade aaaaa aaaaa adaaa adaad fafad aaafa afafa abdda 
dadaa daaaa dfada aafaa aadaa adaaa aaaad aaaaa aaaaa aaada adaaa baaaf aaada aabaa adaaa faaaa 
aaadf aadaa aadaa aaafa aagff aaadb dfada aaaaa dadad dfdda adada addaa baaaa aadaa aaafa aaaaa 
dddaa ddfaa aaaaa aadaa dddaa adaaa aaaaa adaaf bdada aaada adaaa dbdga daaad addaa adddd ddfad 
aaaaa aaaaa faaad faafa aadda daada aaafw aadbf aafgd aaaaa dadaa ddfga adfad dadaa adaaa aaaaa 
daaaa aaaad aaaaa addad aaaad dfdaa aaafb aaada aaada aadda aaaaa addda aaaad aaaaa aaafa aadad 
dddbf aaaaa aaaaa aaaaa aaaaa aeaad aaaaa aaafd aaadd aaaaa adaaa addaf aaafa dagba afaaa daaaa 
fadaa daadd ddddd addaf adfda aabaa aadad daaaa aaaaa aaaaa fdaaa daaaa aaaaa adaad fdadd adaao 
daaaa adfad aadda aaaaa aaaab aaafa fadaa baaad adaaa aaaaa fadad adaaa addaf adaaa fadaa aaaad 
faaad daaaa daaba daaaa aaeda aaaaa addaa fddad aadaa baeaa aabad aafaa daaaa dafda fadfa daada 
afaad dafaa daaad bafdf daaab dfaaa aadaa aadaf adfaa dafaf aabaa daada aaaaa aaaaa afdad fddaa 
adaad aaaaa aaaaa faaba aaaaa aadaa adadb affad dafaa aadfd aaada dddaa aaaaf aadad aaaaa aaaaf 
adaaa aaffa daaaa aaafd addda adaad aadaa aaaaa aadfd adaaa aadaa addaa aaddd daaaa daaaa afgaa 
aadda aaaad aaaaa adafb abaaa aaada baaff aaaaa aaaaa dddaa adaad dadaa addaa adfaa addad adaaa 
daadd afdbd adaaa aaaaa aaadb aaaba afafa adada afbaa adada adaad aafba aadfa dfada aaada adaaa 
daaaa dadda fadaa dddad aaaad aaadb daaaa adadd dafdd dafaa affaf adaba daaad afaaf aaafb adaaa 
aaaaa adaad aabaa ddefa aadda dadad aadda adaad aaafa aaaaf adaaa daada aafaa adbaa dddaa dadaa 
ddaaa abfaa agaaf daada aadad afaaa daadb aadaa daadf ddaaa dbaad aadaa dfaaa dadab aaaaa aaaaa 
adaaa aaafd adaaa faffa agaad adbaa addfa bfaad aaaff aagaa aafda aaadd daada afada aadaa faada 
faaaa aadad adddd aaaaa adada aaaad dadda faada fadaa faafa dadaa aaaaa aaddd dadda fdaaa daaaa 
aadad daaaa addaa aaafa afaad ddadg dadbd ddaad adbfa daaaa aadad aaaag baaaa aaaaa aaaad ddfaf 
adaaa fdada addab dbdga adada daaad aaaad aaaaa daaaa aaaab aaadd aaaaa adaaa adaaa aaaad aadda 
adaad aaaab afdbd aaaaa abafa aaada aaabd aaaaa aaaaa baadf ddaad feaaa addaa aaaad adaaf adaaa 
aaaaa adaaa aabaa fadaf adfaa aaaaa aadaa faafd aadaf aaaad aadaf aaaaa daabd aadaa daaad afdaa 
dfdga adada fadfa abada dddaa daaaa daaaa dfaaa aabaa aafaa daaaa daaaa aadda aaaaa dddaa aaaad 
addaa daaad dadaa aaaaa aaaaa aaafa aaaaa addgd aafad aaaaa aaada fffaa addaa adaad daaea aaaad 
daddb aaaad dfaaa aagaa dddaa daaaa aaaad aaaaa gddda aaffa faaaa adaad daaad dddaa fadaa aabda 
adaed aaaaa dafaa aaaaa aaaaa aaada adade dadad aaaaa aadad aaada dadfa daaaa aadaa faaad aaada 
daadb aaaaf aaaab abaad daadd dafaa badad daaba ddaaa aaaaa aafaa aaaaa aaaaa aaaff aaafa dafaa 
afdaa dadaa adbad gaada daaaa aadaa aaaaa aaada daada daaaf aaaaa aafab faddf aeaaa adfdd addff 
dbaad aaaad daaaa aadaa aaada abddf daaaa afaof adfad afafa daaad aaada aaaaa daffa ddafd aaada 
dddaa ddaad daafd dadaa addad fadda adaaa baaad addfa faaba adada aadad fffaa dadaf eadaa aaafb 
abaaa daaaa afdad aadba ddafa adaaa daaab dfadd aaaga afaga ddead daaaa dbadd adaaa dadab aafda 
aaada aaada daddd aadda aafaa dbaaa afada ddafa gdadf adafd gddaf aadaa daaag dadfd ddaad daadf 
abadd aafda aadda fdaaa daaaa dadaa aaaaa ddffa aaadd aaafa fdfag baaad afbdd afaaa fadaa aaaaf 
aaaaa aaafa afaaa fabad daaaa adada aaaaa aaada aaada ddaad afaaa eafda adaaa daadd daada aaaaa 
aaadd daaaa adadf aadaa aaaaa aaada aaaaa adabd ddaaa aadaa daaaa ddaad aaaaa aafda adaaf faaaa 
dadaa bagaa aafaa aaaaa addaa dafda aaaaa aaddd daaad adada daaaa faafa addaa aaaaf dafaa aaaad 
aaaaa adaaa aadaa ddada aaaaa afaaa daddf adddf aadba aaaaa affda aaaab aaaad abdff aadaa dddaa 
aaaaf aaaaa fgafa daaaa ddaaa aadda daadg aadfd fadaf abdaa aaaaa aadaa baaaa aadaa aadaa afaaa 
adada faada dadaf daaaa daaaf ddaad afdaf aaaad aaddd afaaa daaba aadda aaaad fdfaa aaaaa aadfa 
aaaaa aafga ababg aaaaa abaaa gaaaa fddfa aaaad aafaf aaaaa daadf aaada fafad aaaaf oadfd dfdaa 
aaaba ddaaa aaaga dadad fdada aaaad adada adadd aadda afaaa aaaaa agadb fabfa dadaa aadaa aaaaa 
adaad aaada aadaa aaadf aaada aadab ddaaa daada aaada adaad addaa aaada aafae aaada addaa daaad 
adaaa aaaaa agaaa addaa adada aaddd addaa aaaaa aaafa afaaa aadaf aaaaa aafad daaaa aadad ffaad 
afdaa dfaaa aafff fbaaf aaaaa dafad afada aaaaa aaadd adaaa aaada aafda aaaad eaffa aadaa aaada 
dadda aaaaa aadaa addaa daafa aadad aaaaa ddaaa aafaa afaaa aaaaa daaaa bfaaa aaaaa aaaab fadad 
adfdd adaaa adaaa dfaaa adada aadfa adaad aafaf dbaaa aaaaa adadd ddaaa fdaad ddaaa addaa aabaa 
aaaad daafa aafaa adafa adaaa aaaaf aaadf aaaaa aadaa aaaaa aaafa aaaaa daaad faaaa adaad abdaa 
adfaa adafd aaaad aafaa aaaaa gafaa aadaa aaada aadaa aaaaa ddaaa aaaad aadda aaaaa agddf aaadd 
daaab aaaaa aaaff aaaaa aadad dddaa aaadf aadad aaada baaaa ddaba ddadf daaaa dbdff daabd aadaa 
daadd daabf adgad daadb abada dadaa dadfa daada dadda daaaa bfaaa aaada aaaaa aafaa aadod aafad 
daaaa aaaaa aaaaa addfa fbaaa aaadd daadd dadad dbdad aadda aaaaa adaaa ddddd adaad faddd adaaa 
aaddd addad aaaaa adaaa gaadb aadda daaaa aaada adada aaaaa adadd aaada aabfa aaada adaaa fddda 
aadaa aaaaa aadba dfdad aabaa dadaa daafa abdaa daaaa aaadd daaaa abaaa adaaa daaaa aaaad dgaad 
adaaa dadaa aagaa aaada aadaa faaag adaaa faaaa daaaa dddaa aaaag aaaaa addaa faadb daaaa adaaf 
aaaaa aaaaa adaad faada aadad aaaad aaaaa aadad adaaa adaaa dbadd dgadf aaddd affab aaaaa aaaaa 
adfaa daaaf aaaaf fddab aadad aaaaa aaaaa abada aaaaa aaaab aaada faada aaada aafad adafd aaaaf 
fdaaa aafad adada faaaa daaaa badfa daaaf aaaaa aaaaa afaaa daaaa aaaaa agaaf afddd daadb aafda 
abaaa aaaaa addaa aaaaa adaaa aagba faaaa dfbda fddaa aadaf aaaaa aabad afaag addaa adffa daadd 
adaaa faadd dadaa adafa aaadd aaaaa feaaa afaaa fdafa aaafa aaada ddaaf daaaa aaaaa aaada aaddd 
dbdfd aaaaa daaad aaaba dddaa aaada aadad adfda daaaa daaaa aaaaf aaaag dafda adfaa eaada adddd 
adfad faaaa daado dadad aadaa fafaa aaaaa daaad aaafa aaaaa aaaad faaba fdadd aaaaf adaaa aaaaa 
aaaaa fddda aabaa aaaaa aaffa daaaf aadaa aaaaa aaada aafad aaaaa daaaa aaada aaada adaad aadda 
aaaaa deafa adaab aadda aadfd fdddd aadda adada adaaa aaaaa aaada adfdb aaafa aaaaa aaaaa ddadd 
adfaa aaaaa adada aaaad aaaaa ffaaa aaada aaaaa badaa adaaa adade aafda aaaaa aaafa adaaa adaaa 
aaaaa aaadd addaa afaaa dadaa dadaa gdadd aaaad aaabd adafd ddbaa faaaa fdaad daada afdfa aaaad 
adaaa aaada dadaa aaaaa aaaaa daaba faaad aaaaa aaafd aaaad daaad daaaa daaaa bdaaa gagda daaad 
aadda aaaaa faaaa adaaa aadfa aaaao aaaaa aafda daada gfafd aadad aaada aaadf dfadd aaaaa aadaa 
aaadd aadaf aaada aaaaa aaaad aaaaa daaaf aaafa dddaa faaaa aaafa faadf baada dadda daaaa daafd 
daaad addad aaaaa aaadd adaaa aafdd adadd dbaaa aaaaa daaaa adfaa aaaad aadaa faaad dadaa aaada 
aaddd aadad adaaa daaab daadf aaada aaada aaaad baddd adafa ddfaa aaada ddddd addaa aafab adaba 
afafa faafd ddfab aaaad aaaff dafgf adddd aaaaa dfaaf ddaaa daffa daada afaaa aaaaa aafaa ddada 
dadaa aaaaa faaad dadaf dadaa bfaaf aaafd faaab afdaa adaaa aaaaa addad aaada fadda aadaa adaaa 
aaaaa ddaaa aaaaa aaaad dadda ddfaa daaaa ffaaa dadae fafaa adaaa abaaa aaaad aadaa addda aadaa 
daaaa aaaad aaaaa daaaa aabaf addaa daadd ddaaa aaada afbaa daada aaaaa daaad aadad dfaaf aaada 
fyfad daaaa fadaf babda adaad daaad daada bddaa aaaaa aadaa adada fadaa dafdd addaa gadda aaaaa 
dabaa oaaad fabfa fadad ddada adaaa aaaaa daada aaafd ddaaa afabb ddada adaaa aabaa daaad aaaad 
adaaa aaada adfaa adaaa aaaaa afada aaaaf dadda aaada aaaad aaaaa fadab aaaaa aafaa daada aadda 
aaaaa aaaad daaba dddaa feaad aaaaa fdaaa aadaa adfaa aaaaa daada aafad aaaff dadaa aaada dadad 
faafd dddaa faada adfad adafd aaadd aaadb aaaaa dddaa daadd afadd aadaa dadaa aaadd aadda fabaf 
aaadf adaad aadda adada ddaaa daadd aaaad baaad aadfa aaaaa faaad dafad daafa aadaa aaaaa daaaa 
aafaa daaaa aaada aedaa ddafd aafda fadaa daaaa daaad afaba afada faadd aaada aaaaa aafda aaaaa 
aaaaa afdda aaafa afada addaa adffa faaaa aadda dadfa aaada aaaaf aaada aaaaa adbda dbdaa afaad 
aaaaa aaaaa ddaad dfadd afaab aafaa aaaaa aaaaa daada ddada addaa addaa aeaaa aaaaa dadad aaaaa 
aadaa fdaba aaaaa daaaa dddda adada aaaaf ffada adadd daaaa daaaa adaba aaaab aaaaa aadaa adada 
baaad aadda dadda adaaa addaa aaaad aadaa aaaaf abdfa baada aaaad aaaad adafa aaeaa aaaaa aadda 
dddad aadda aaaad fafdd dagaa faaaa ddada afdaa ddaaa dadag daafa daaad faaaa aadda daaaa adaaa 
afdda dddaa aabad fdaaa aafaa adaaa aadaa ddaad aaaad aaada dadda adaad fdddd aaaaf faaaf afdba 
aaaaa aaaaa adbaa aaafa dadaa aafaf aduad daaaf aaada daaaa dfaaa agaaa adfaa affaa aadaa aaaad 
aaadf ddaaa aaadd dddaa daada aaaaa aaada daabf aaaaa daaaa addfa dfaaa adafd aafad aaada aaaaa 
aadaa aaada afaaa dadda aaaaa aaaaa aaaaa faaaa aadda eaaaf aaada faaaa aaadd aaada fadda aadaa 
aaaaa ddaad dabda aaaaa daafa aadad baada aaaaa dadbd aaaaa aaaaa aaaad aaadf aaaaa aaaaa badaa 
faddd badaa afaaa addaa aadaa aafda adfaa adffg daaad aafdf aadab aaaaa aafad aadaa aaaaa adada 
fadad daada addaa aaadd aadaa ddfad aaaod faaaa addaa aaaad fffad aaaaa daaaa aaada aaafa adaaf 
dadda daada adada afaaa aaaaa aaaad dadaa aadaf addaa daaaa addbd faadd dfaaa afadd aaeaa baaad 
aaaad daaaa afdaa eddda dbaaa aaaaa adaaa aaafa aadfa abafa daaaa aaada daaaa adfaa aaaaa aaaaf 
aadaa faaaa aaaaa aaaaa faafa aaaaa daaad abbaa aaaab daadd aafaa aadaa aaaaa gaaaa adaad addba 
aaaaa aafaa ddadf ddaab ddaad aaaaa adaaa aafaa aaada gdfda daaaa afaaa aafaa aafba daafa aaaaa 
adfad adaaa aaaba aaaad agaad aadaa abaaa aaaaa aaada adadf daaaa fdgdf oddad aaaaa aadda aaaaa 
badaf aaada addaa daaaf daadd aaaaa ddaad aaaae faaaa daaad addaa dadfa daaba aaada aaaaa aaaaf 
adaad afaaa aadad aaafa adaaa fbaaf aaaao aafaa aaaaa aaafa adaaf afddd aaafd adafa adaaa dffaa 
aaadf aadaf ffada aafad afaaa aadda ddgaa afaaa dfaaa dafda dadaa adaaa aaada aaafa dbaaa aabaa 
aaaaa aaafa abfaa adada aadaa aaaaa aaaad aaaaa daada addaa adaad dfaaa aaaad daaaa daaaa aaaaa 
aafaa adddb fdaaa aaaad aaaaa dafaa aaada adaaa faaaa aaaaa aaaaa ddaaa daaaa aaaaa aaaad dadaa 
aaaaa aaadd dddad aaaaa fadda aaaaf aadaa aaadd aaaaa dadaa aadaa aaada aafaa aaaaa dfaaa aaaad 
aaaad aaaaa aaafd aadaa adaab dadfa afbaa adagd aaaaa daaaa daada adada aadad adaaa dadea daaaa 
aabaa adafd adaaf aaada aafda faadd dfaaa adaaa aaaaa afada aaafa aadab aaafb aaaaa adaad aafaa 
faddd addab daada aadaa ffaad aaaaa aaaab faaaf aaaaa aaaad ddddd abdaa aaafa aaaaf aaaaa aaaaa 
aaaaa dfaaf gaaad aaafa aaaaa ddaaa adaaa ddaaa aaaad aadaa adddd aaaaf aaaaa adaab afdad gadaf 
adaba aadfa aaaaa aaaaa adaaf aadda aafaa aadfd afdad daaaa daaad faaaf dgdaa fabaa aadaa aadad 
aaaaf afaaa aafaa aaadd faaaa adaaa faaaa addaa addaa adaaa aaaad ddaaa aaaba faaaa aaaad bagda 
adadd aaadf fadad daaad gdaaf abbad aaaaa aaada aaaad aaaad aadad aaaaa aadaf adada aaada abfaa 
adaaa addda aaaad aaaaa gadda aafad fdadg fadad badad ddddd aaaad aaada adadf dadaa aabba aaaad 
fadaa aaaaa aaddb adaaa aaada afaad aaaaa aadda adadd aaaaa aaaad ddafe afbad dfafd dafaa dauaa 
dfdaf aaaaa aadaa aaafa aadad adaaa gaaad daaaa aaada aabaa aaaaa aafdg aadaa adfaa afaad aafaa 
dfaaa dfddf aadaa adadd dadaa aaaaa ddaaa baaaa abfda afdad addda aadaf aadda faaaa aafdd daada 
aadaa aaaaa aafaa adada ddfda daaaa aaadf aaaaa aaafg bdaaa dfdfb aaeaa adabd aadad fbafa fdafa 
aaaaa aaadd aaafa aaaaa aaafa adaad dadaf daafa agaaa dafad addda aadbd aafad aaada adffd aaadd 
dadda aaaaa daaad adaaa aaada aaaad fadad adaaa aaaad aaded adaad addaf aaada aaaba ddddd aaaaa 
aadad aaddd aaada faaaa aaaaa daada addba aaaaa aadaf faaaa dadaa daffa aaafa aaadd daaad daaaa 
aaddd daadb aaaaa aadaa fadaa dagaa addfa aadaa aaaaa faaaa adaaa ddaad ddaaa ddaaa aaaff dafda 
ddaaa aaddd adada aaada adaed bagdd aaaed adafd aaafd adaaa adada faafa daaad dgaaa aaaaa dddfd 
ddaaa affda aaaaa dadad aaaaa adfda aaaaf aafaa dadaa aaaad dadaa ddaaa aafaa aafda aadaa aaada 
daaad addaa aadaa daaaa faaaa aadda aaadf ddfad fdada adbda adabf aaada afada dadda aafda aadaa 
daffd aaaad ddada faaaa baada aaada aagaa baaaa ddaaa adoda adaaa eaaaa aaaab aaaaa adada ddffa 
aaafd daaaa afadd aaada aaaad aaaaa aadaa afaaa daaaa dabaa baaaa aaaea aadaa aaaaa gbaaa aaaaa 
abaad abddf dabaa aaaaf dddaa aaada dbada aafda dbadd adada aaada aaada edaaa fadaa ddada aaaff 
aaaaa aaaad daaad ddaaa aadaf adgad aaaaa daadd aaafa addaa adafa aaaaa adadd bdaba daaaa abada 
daaab aaafa aaaad afaaf afaaa aadad aadda aaaad aabaa aaaad dafaa daaaa adaaa gbada aaaaa afaaa 
aadaf adada dadaa abaaa afaae afadd addda aaaaa aaaaa aaaab adada abdad abadd adaaa aaada adaga 
daaad dadaa abgfa aadfa adada aagda ddaad aaadf daadd afadd dfaea ffaaa dadfa aadaf aadad aafda 
aadaa daaaf aaadd daadf aaaaa aaadd addaa aaafa aaaaa adfaa aaaaa daadd gaaad daaaa baaaa aaaaa 
adabf daaaa addda addaa afaaa ddaaa adeaa fafaa aaaaf aaaad fdaaa dadaa aaaaa aaaaf aaafg dadda 
abaad dafaf abaaa aaaad afadd addaa aaaaa aadaa aafaa aadad daada aaadd daaaa daaaa aadaa agdaa 
daaaa aaeaa aadfa daada afada aafaa daada adaaa aaaaa aadaa aadaa dddda ddadd aaaad aaaaa aaadd 
faada adada addaf aaaab aaaaa adadb daaaa aadda aaafa adada badaa aaaaa dfdad aadfa ddgaa adfaf 
adaad aaaaa bfaaa adaab aadad abaaa adaaa addad aaaad aaadd adaaa faaad aabad addda addaa adddd 
dadaa adaaa ffaad daaaa dadaa afbaa aadda daaaa aafaa aaaaa ddaaa aaoad afadd gafaf aaaaa dadaa 
aaaaa daadd aaaaa aaada aadaa aaaaa dadaa aaadd daadf daada aaafa daaaa dbada aaaad aaaba aaaaa 
daaaa aaada aaffa faaaa afdfd fdaaf aaada addau adaba daada aafad aaada aaaaa afaaa daada adadd 
abaaa aaafa addaa dadda aabad dfada aaaaa ddafa aaaaa ddaaa aafaa dgaad addda aadaa afdaa faaaa 
aaaaf aaaaa fdaaa aabaa aaada adaaa adaaa aaaaa ddafa afafd daaaa dfadd aaaaa baaaa ddffd daaaa 
adadd aaaff bdada aadaa abaad aaaaf adaaa dadfa aaaaa adaaa daaaa afbdd ffdab faadd agaaa aaaad 
aadda dafaa aabaa afaaa aaada aadab aadaa dbdaa aaada adadf adaaa aaafa aadda faaaa gddaa daaaa 
fadaa aaaaa aadaa faaaa faaaa dbfad dddaa aadaa dfaad aaaad aabaa addaf adaaa aaaaa dadda addbb 
addaa abdaa aaaaa fgdad aaaaa aaada adaaa daaaa adada faada fddaa adaaa aaadf aaddd dafaa faafa 
aaadd aaafa aaaaf edada dfaaa aaffa daaad afaaa adfdd aadaa aafaa faadd aaada aaaad ddaaa daaab 
aadaa adaaa fdaaa aaafa adaaa addaf aaadd aaada aadaa addda bbada adaad aaaaa aaaaa faada adafa 
afaaa addda aaaaa aadad aaadd aaaaa fadad aaaaa faadb ddaaa dfada dafdd ffdaa aaaaa adfaa aaada 
afdaa aaeaa dadad aaafa faaaa aaaaa aaaad aabfa aaaaa adada daaaa adaad dddad adaaa aaadd fadad 
dadaa aabaa adbdd aaada abaaa aaaaa ddabd daaaf daaad aaada babaa aaaaa efafd ddaaa baaaa dfaba 
aadda aafaa adaaf aaada aaaaa daadd aadaa aaddd aafab daaaa dafaa dadda aaaad aaaaf aadaa adaad 
ffdaa fafdf abaaa baaaf aaada daaba aaaaa aaaba baaad faafa fadaa dddaa adaad aadad abbbf aafad 
baaba adaad aaadf faaaf aaaaa afada afaff aaadd adadf aadaa aaaaa daaad dafaa aafaa adaaa aadda 
adaba addaa aaafa fddaa aadda aaada aaaaa aaaaa ddaaf aafaa fadga fadaa aaaad faada gdaaa aaaaa 
ddaad gdaay aaaad fadaa aafad fadad aaaad aaada efdda dddfa adaaa aadfd aaaab afaaa aagda aadad 
aaaaa aadaa adaaa baaaa faaaa faaaa abada faaad aaaaa baaab dbdad daaaa aaada fdafa fbafd addda 
faaab aabda aaaaa daadf aaaaa babaa adaad aaada bddaa afaaa adada ddaad afdda affda daaaa adada 
adaaa aaaaa dafdd addaa aadaa daaaa aaaab abaaa ddaaa ddaaa addda bdaaa afdaa aaaaa dadaa daeab 
adfda aadad aaafd afaaa afbad fddaa aaaab abaaa ddaad daaaa aadaa aadaa aaaad aabad aadaa aadaf 
aaaaa gadfa adfdd faada ddafa aadda adaad aaddd aaaaa dadda aaadd aaaba ddaad dfaed aaaaa aadda 
aaaba afaaa ddaaa afaaa dadaa dfaaf aaafa aaada afada aaaad aaaaa daaad ddaad adaba adaaa afada 
daafd daafa aadfa baadd afaaa aaada aadaa addad aaaaa aaddf addda daaad aagaa afdaa aaaaa bdaad 
aadda dfaaa daaaa aabaa daaad baffd aaaad aaaad addaa baaaa aaaad aabfa addaa aaaaa daaaa fadaa 
ddada aaaad faaba adbaa aaadd aadaf aadfd adada adaaa aadaa afaaa aaaaa daafa aaada daada daabd 
daaaa aaaaf aaaad adaaa aafaa adaad aaada aabaa aaaaa adaaa dadaa aadag aaaad daadd aaaaa daaaa 
badaa ababa adaaa aaada aadbd aagaa dfada daada afaag faaad aabaa aaaaa gdaaa aaddd aaaad adada 
aaaaa aadad dadaa aaaaa afaaf fdaaa abdaa aaaaa aaada eaaaa aadda aadaa aaaaa aafea aaaaf aaada 
aadaa aaaea aaafd baefa faaad adfaa aaafa aaadf gbdad aaaaa faaaa adaaa agdaa aaada faaaa adaaa 
adaad aadad daada daadd daaaa afaad abdfa baaad dadaa aaaaa daada aadad afaaa addda aaaba aaaaa 
daaaa ddaaa dfdaa adaba aaaad adada dddaa aaada aadaa daaaa badda daaad aadaa dfaaa aadaa daafd 
aadfd faaaa ddaaa aaadd adaaa aaaaa adaaf aadaa aaaad baaaa affaa afaad adbad gaaaa aaaaa afaaa 
ddaaa abddd aaaad fabaa aaada abaad daaaa fddbd adadd aafaa aaaaa aadaa aaafa ageda aaaaa adaaa 
aaaaf abbbd fbaaa afffa gaaaa fdaae aaada aafdd aadad aaada faadb baaaa aaaaa aaaaa aaddf dafaa 
aaabd abaga addfa aadda ddada addaa addaa aabaa aaaaf afdaa dadaa addab addaa ddaaa faaad aadda 
aaddd adadd aaaff aabfa afaad aaaaa dadad faada addaa dadda adada aafaa dgdaa abaad aafaa aadfd 
dadda fafaa aaaad adfda faaaf daeaa faaaa ffdfa baada aafda addae adbaa adaaa dafab dddaa aadaa 
aadaa adaad aadaa aaaaa afada aaaaf afaad adaaa aadaa adaad ddadf aaada daada adaaa adaad aaadd 
adada aadaa dadaa aadaa dddad aadaa faada dabad addda daaaa aadaa aadfa aadaa fdaaa abfag adaad 
aadad aadaa daaga dfaad aaabd baaad baada adddd fdfaa daaad daaaa abaad ddadd daaaa aaaaa faaaa 
fadaa aadaa dffad adbad aaada aadaa daaaa aadda aadad daada daada aadaa abaad ddafa gaadd fadaa 
afafa eaafa aadad dfbaa adaaa abbad aafad aaada aaaaa adaaa aaada ddadd aabdf aaffd adafa afaaa 
aaaaa afaaa aaaaa aaada adaad daaad aadfa adaaa adada daaad aaada aaaab agbaa dagae adaaa dadga 
fadfd adaaa aaaaa aadaa adafa aadfd addfa dadaa aaaad daaaa fadda adaaa adfaa fdaad afaaa adaaa 
daaab dfafa aaaaa aadaa dadaa eaada aaada fddaa adbaf adada aaaad aaaaa afadd fdafd abdaa aadda 
addaa ddaaa aadaa aaaaa faaad fadga baadd aaaaa addad daaad aaaaa baaaf aaaaa gdaaa aadaa faaaf 
ddaaa aaada afdab faaaf abaab bbaaa daada fdada aaaga aaaad addaa aaaaa aafda afaaa agada dddaa 
dadaa aaaaa aaaaa aaaaa adaad daadd addda aadaa aadaa aaaad daada daaag adaaa daaaf aaaad aaada 
aaaaa dfada afaad dadad daaaa aaaad dddda adada fdaad aaaaf aadaa bfddd aaaaa adadf aaead aafaa 
dgddd dadaa aaaaa dadad fafdd aaaaa adada aadad afafa daaaa aafaa afbaa adaad afaaa aaaaa dadaa 
afaba dbbda faaad fdaad afaaa aadba adddd faaaa aaaaa baaaa fddaa aaafd dfdaa afaaa faaaa aaaaa 
afdaa daaad addad aafaa baaaa ddaaa ddaad aadad aaaaa daadd aaaaf badad adaaa daaaa aaaaa badaa 
adaaa aadda aaaad aaaba dadda aadaa fadaa aaaaa aaaaa bdaaf aaaaa aaafa daaaa aaaaa adfda abaad 
faaad fdfda faaag faaad aadaa aaaad aadaa daaaa aaaaa aaadd aaaaa adaad aaaaa dadaf afaaa aaaga 
daagd aaaad afdaa adada daaaa aaada aafaa addda afdaa affda daaaa aadaa dadda aafdd aaaaa adaaf 
abdae fafaa adaad afdaa ffaad bgada faaaa abaaa adaff adfaa faada fadaa aaabg fdaaa aaaaa ffada 
addad aaada dabda aaada aaaaa aabaa fdada fdfda aafda adaaa aaaaa ffdad aadaa adada aaaad dadad 
adbbf aaaaa daafa adaaa dabfd daaaa ddaaa aaaad aaada aaaad aaaaa addda aadda ddadb aaada aabaa 
adaaa adaad fadda abaaa aadda fdaaf adaaa aaaad adafa daaaa ffada aaaaa aaaad faaaa aaaaa adaaa 
adaaa adaaa adaaa daadd daada aafaa aadag afada adada aadaa ddaaa aaaaa daaaa aaaaa affaa faaaa 
afaad fdadd ddada aaaaa aaaaa aadad aaadd afaad faaaa adaad aaaff daada adadd aaaaa fdaaa aaada 
adadf aadda afaaa agadd aaabd aaaba dfdfa faaaa afaaa aaaaa aaaaa aaaaa aaaaf fafad daaad dadaa 
adaad faaaa aaaaa aaafa aaaaa adaaa aaaaa aaada aaafd aadba aaaaa aagaf aaaaa aaafa daadd dafaa 
aaadd dddbf faeaa adafa adada aaaaa addaa aaaad dadda daada dadaa adada aadad adadd aafba aadaa 
daada daadd badaa gdaaf aadaa aaaaa aaaab aadad bdaaa daaad abaaa daada aaaaa bdaad aaaaa fdaaa 
aaada daaff daaaf daaaf adaaa daaad aaaaa daada aaaaa daaaa ddaaa afaaa aadaa aaaaa faaaa adada 
dfadd aaadd dadaf ddaaa fadaf aaada aadaa afaaa aaafd aaada aaaad fdaaa adddd aadaf aaafa fadad 
aaadd daaad dbaaa aaaaa aadaa afaad adaaa adaaf adffd aaaad aadaa aaaad aafaa aaaad aaaga oaaaa 
ddaba addda dddda daaaf dadaa aaaaa aaada aaaad bdfaa aadaa daaaa daada aaada aaaad aaada aadaa 
fbada daada aaaaf aeaad aaaaa adaaa aaaaa dgaaa aadaa daaga aaaaa agaaa aadaa adaad aaada abdaf 
aaada aaaab aaadd daaaa aadda aaaag daaaa aaaaa aaaaa dadba afada fafdb afaad aadda aabda aaafd 
adaaa aaafa afdaa adaaa aaaad baaab aaabd aaaaa aadaf daadd aaafd abafa faaaa aaaaa aaddd ddaaa 
aaada afdaa aafaa daadd aaaaa afaad aadfa aaaaf adada aaaaa dafaf daaaa aaaaa adaaa adaaa afaaa 
dbaad aaadd daada dadfa aagdd daadd aadad daaaf aaada dfdaa fddaa faadd adaaa aaaaa addad adaad 
aadba aafaa aadab addda aaaaa aaaaa aaafd aaada aaaaa dfdad adaaa adafa daaad aaaaa faaaa aaaaa 
faaad adaad aaaaa daadd afdaa dfaaa fdfdf adaaa adaba badda aoadd daada aaadd aafaa ddaaa aaaaa 
aaaaa aaaaf aafaf aaada addaa afaab aaaad abaaa aaafo aaada aadad aafda aaaaa daaaa aaaab gdaad 
aaada aaaaa aadff aaaaf aaaaf abaaa ffaaa fadad aaada aaaaa daaaf adadd affaa aaaaa ddaaa aaaaa 
aaaaa daaaa aadaa daaad aadfb fffdd aadaa daafd aaada dddaa aaabf aaaaa aaaaa affga faaaa dfdaa 
aafda abdaa dbaaa gaddf adaaa aadda adaaa fdaaa baaad addfd faaaa aaaga aaaaa faaaa aadaa adaad 
aafaa afaaa affff dfdad addad aafad aaaaa aaafa aaaaa daaaa daaad faafa afdda daaaa aaaad badaa 
aaaaa aaada ddaaa ffgaa aaaaa bdaaa aaaaa afabd aaaaa aaadf fdaaa aafda aadda aabaa dfdaf aaaaf 
baadd aaada adaaa adaaa aaaab adaoa aaaaa aaaaf afgaa aaafa gabaa aafaa fdfaa daaad gaada aadaa 
aadab dadad daaad agaaa aaaad aaaaa aaddd daaaa daeda aaaaa daaad aaaaa aaaaa aaaab ffafd daaaa 
dddda aaaaa aaaaa faaaa aaaaa addda aaafa aadaa ddgaa daaad aaaaf aaadd dadaa fabad aadaa daaad 
aaaaa affaa dddaa aadaa baaaa aaaab aaaaa adaaa daaaa afaaa aadaa aaada aafad aaadd aaaaa aaaaa 
adaaa afafa aadad aadaa aadda ddaaa addaa aaaaf addba dfbdd dddaa fdfad aadaa aafdd aafaf dafaa 
faada daafa faaad addaa fdaaa aafaa fadaa aaaaa adfad aaeaf adada eaaaa aaaab afadd aaaaa aaaaa 
adaaa aaada aaadd ddaaa aaaaa aaaga aaada aaafd addad dadaa daead aaaaa aaaaa adaaa aaaaa aafaa 
adaaa ddada baaaa daaaf aadaa aaaaa aaaaa faddd daded abdda daaaa dfaad daafd aadaa aaada afdaa 
aaaaa aafga dadaa aadad aaaaa aaaaa aaadd dadaa daaad dfadd ddbdd afaaa adaaa addad aaafa daafd 
afafa aaadf aaddf adaaf adaga dabaa gaaaa aadaa aaddd aaaaa affaa aaffa daaaa ddffa aadfd fafad 
udaaa fbaad ddaga ddadd fddaa aaadf eaegd dadaa aadaa addaa dddaa aaafa daddd dfdaa addag ddaad 
afaad dagaa aadaa daaaa aadaa aaaad aaada adaad dadda aaaaa daaaa aaada aaaaa aaaaa aaaaa aaada 
aaadf fdadf adaaa dfddg daaaa fdaad aaaaa aaafe daaad baaaa aaaaa daada dfaaa adaad adaaa faaea 
aafaa afdaa adaaa adaaa faaaa afaaa aabda aadad affaf aadfa aaaaf faaaa aadaa aaaaa dadaa aaada 
aaaaa aadaa aaada adafd faaab aaaad aaada adaaa aadad aaaaa aaaaf adaaa aaaad aaddd afaad aaaad 
addaa bdabd aaadg aadda aaabd afaad aaaad adaaa daaad daaaf dfaab adadd adgad bbdaa aaaad fdada 
fabaa afaad afaad adbaf adaad daaaa aaaab aadaa faaaa aaaaa aadad afadd adada aadaf bdaaa dadaa 
aaada abdad faaaa aaada fdada adafa ddada aaaaa faada aaaaa aaaaa adafa adaaa aaaaa aaaad aaada 
adada afdad gdaea aaaaa aaabg daaad adada daddd faaaa affad aabdd aadaa aaaad daada abdaa dadaa 
fagaa adadd daaab adaad aaafd aadda aadaa aaafd dadaa adaad daaga aafaa daaaf addaa adaaa aadad 
aaada adadd aafaf agaad aaada fdaaa aadad dadad dadag aadaa aadaf baada dadda daaaa faadd aaaba 
afaaa daaad ddafa aaaag adaaa dbaaa aaaaf faddf adfaa dadaa aaaaa adada aaada aaaaa fdaaf afadd 
aaaaa aaada adaba babaa ddaaa abdda abaaf aaaad daaaa faaaa aaaad addba ddaaa aaada aafda aaaaa 
aaaaa afadf aaaad dadaf aadaa aaafd adbaa daadd aaadd daada aafad aaaaa aadga aaaaa aaaaa addfa 
adfaa daaad aaebd gaaad aaaad adaaa aadaa adbda aadaa aafaa fdaaa adaaa addda aaaaa aafda dddda 
aaada aaafa adfaf gaaaa aadaa aaaaa afdad adaaa adfaf daafa afaaa ddaad aaaaa adaaa daffa faaaf 
daaaa adaaa aadad adaaa abaaa aafaf aaadd aaaaa aaaad afaaa dadda aaaaa adafa adaad ddddd afgaa 
aaada aaaad aaaaa afada aaaaa aadfd aaada adada aafad daaaa aadaf aadad afadd aedaa aadaa daaaa 
aadad adafa adaaf aaaad adaaa daada aaaad dafad aaada aaadd aaaaa addda aadaa adaba aadda afaaa 
aaaad daaaa aaaad aaada aaada afaaa dadaa aaaaa aadaf daaab aaada aadaa aaadd faaad aaada ddgaa 
dabaf fdaad ddaaf daaaa daaaa aadad adaga aadad addda dadaa daaad dbada dddda ddaaa affdd aaada 
ddafd fabda gaaaa adadd aaada affaa aaadd adadd aaaaa aadaf adaad gddaa aaaaa aaada dabda aaaaa 
addfa daaaa aabaa daaaa adddd ddafd fadad adaaa aaada adaad aaaaa aaaaa adaaa aaaaa dadba aafad 
aagda aaaad fadda daaad aaaad badfa abaaa aaaaa afada fadad adaad aaaaf aadaa daddd abaaa aadaa 
daada aaada aadda addda fdaaa adaad afbaa daaad aadda aaadd faaaf aeaad dfaad daaad daadd afdaa 
aaadd aafda aaaaa adaaa aaaaa afgad adaaa daada aaada aafaa aaddd feada aaaab daaaa abdad fdaaa 
adffa daaga aaafa adadd daaaa adaaa addad dddaa aaaaa ddada aaada aaada aaada aadaa daaaa afdad 
aaada aafad aaadd daada adada dadfa fdaaa ddaad aaaaa aaaga afbda aadaa dadaa bdaad afaaa adaaa 
dfada dbdaa aaaaa aaaaa adfad daaaa ddada aaaae aaaaa bddda adaaa aaada aafaa aaaaa aadda adaaa 
aaaaa dadda daaaf dadad afafd afdad dabaa affaf aaaaa affaa faaaa aaaaa aadaa daaaa aaafa dadaa 
bbaaa addaa adaaa aaaaa aaaea aaaad addad fbaaa fadad adaaa aaaaf aafad badda baada aaaaa afaaa 
adaaa dadaa fdaad afaad fbaaa aadfa faadd aadaa aaaaa aaafd baaad aadea daaaa adaaa daaad addda 
adaaa daada daaad dddaa aaaaa daada aaaad aaaad afaad dddda adaad aadaa aaaaa addad aaeda fdadd 
faadd aabaa aaaaa daadd aaaaa agada abdaa faada aaada aaaaa aaaaa aaaaf aadaa aadad abaad fdaad 
fdafa afdda aaada adaaa aaaad adaab aaaaa daaad aadaa adddf aaffa aadaa aadfa aaadf addaa gaaaa 
ddaaa aadaa afddd aaaaa aaaad aaaaa fafaa dddfa aaada baada aafaa afaaa adaad aaada aaaaa aaaaa 
dabaa afaaa daaad daada aadaa ddfaa afafa daaaa aaaad aadaa adaaa daaaa ddaaf aaada aaaaa aafff 
adaaa adaaa daaaa ddaaa aaaaa daaaa aaadd aaddd ddeda aaaaa aaaaa adaad adadd aaaff dfada afada 
adaaa aaaaa aaaaa adada addaa aafad adfaa afddd aaada aaaaa aagda aaadd aaaad adfdd bfada afaaf 
aaaae afaaa aaaaa aaaad aadda aaafa adaad aadaa eddda aaaaa faafa aaabf dfafa daaad aaaaa abaad 
dfabd abdaa daaaa aaeaa aaadd faaaa adaaa aadaa aaaad afdda daafa aadaa aaaad aaaad aadda daaaa 
ddffd aadaf adfdd adaad bdaaa adaaa aaddf addda aaaaa aaadd fabda daaad aaaad daafd ffada dddfd 
aadfa aaaaf aaafa aaada dabfa aadaa aafaa aabad adaaa afada aaaaa aaaaa ffaaa aaaaa faaaf adafa 
aafaa aaaaa dddad ddaaa aaaad aaaaa baaba adfdd dfada aaadf aaddd faaaa aadda ffdad afdad afaaa 
dfaad abaad afaaa adaaa daaaf faadd baaaa adaaa aaaaa aaadd aaddf agaaa daaaa aaada aaaaa aaaaf 
addad ddada baddf daaaa dadaa aaaaa fadda aadaa daadf daaad afada adaaa daada faaaa adaaa daadf 
affdd dadda odaae addaa aaaaa aaafa adaad abaaa dadda daaaa aadda aaffa fadaa addfd aaaaa adaaa 
addfa aadad aaaad faaaa aaffa adada daaaa abdad aadaa fdaaa dfaaa aaddd adada gaaaa daafd ddddf 
aadoa adaaf adada adafa daadd aaaaa adada daadd adada aaaaa addaa aaada dbaba dadda faadd aaaaa 
afafa badaa ddaad fgaaa baada dadda aaaaa faada aadaa dabad aaaaa baaaa aabda aaada afdad daada 
faaba addaa aaafa aaada aafaa adaaa adfba aadaa ddaad adaaa aaaaa aaddd dddaf fdaaa afada daddf 
baaaf adaad aaaaa abddf aaaaf dafaa aadaf aaaaa aaada daaaa daaaa afaaa aadaa daadf ddafd adada 
aaffa daaab affad aadaa aadaa ddada dfaaf adaad badaa dafda addaa aafab aaaaa aaaaa fafda adaaa 
daada aaaaa aaaaf aaaaa aaaaa ddaaa bdada aadaa aaaad aaaad aadaa aafaa aaaaa ddbba ddaad dadda 
daaaa aaaad adafd afaaa daafd addda afdfa aadaa aaada aabdf adada fadaa aaaaa aaaba aaaad aaada 
daaad ddada aaaaa aabaa dadad daaaf addfd aaadd dadaa aaaba aaaaa aaada aaaaa faaaa aaaaa ddadd 
badda afaaa dfada abadd aadab ddaaa daada aaaaa aaaaa aafaf fddda aadaa daaaa aabaa daaad adaaa 
daaaa aaffa dabdd adada addaa abfdd adafa aadda aadad fdaad aaaad faaaf aafab aaaaa abaaa faaaa 
fafba adabd aaaad aaafa adadd daaaa dfaad aaaaa aaaaa aaaad adaad aadaa adaaa dadda aaada aabab 
addaa aaaab ddbaa aadda aaada addab aaaaa daaaa aaaaf aaaba aadaa addda addfa aaada faaaa aadaa 
aaada dadda adaaa ddada daddd aaaaa daaaf aaaad aaaaa fdddd ddaaa daada ddaaa aaaba daaff dafaf 
daaaa aaaad abdda aaaaa aaada aaaaa afdaa dadba aaaad dgaod aaadd addad afaad adaaa adaaa aaaaa 
aadaa fadad adadd faafd adaad aadad daaaa aaaad adaaa aaada aafda aaaad aadad dadad aaaaa aaabd 
afadf aaaaa dadda aadag aagaa aaaaa aaaaa adgaf aaaaf dbdba aaaaa dfdbf aaaad aaaaf abaaa faaaa 
dafaf dadad aaaaa aadad addda aaofa adaaf adadf daaaa aadda daaaa agfad fdaaa aafdd aaafa ddaaa 
aaaad adadd adada aaada daaaa aadfd aafda afaaa adfda adada aaada daaaa aabaa adada adaad dfaaa 
daaad daaaa dfaaa dddfa ddfba aadaa fdadf faaaa dafad aadab adaad aaada fdddd aaaba aaaaa aaaad 
adbaa fdaaa aaaaa badda eaadf addda faada addaf aaadd ddaad aaadf adada aaaad aaaaa afada dfada 
adfaa aaada aaada faaad aaaaa aaaaa adada aaada addaa aafaa aaaaa dddbf aaaad addfa aaaaa aadaa 
fafab aadab aadda dafaa aadfd addaa adada daaad faaaa aaeaa afaaa abdaa aaaaa aabaa aaada adfaa 
aaaad aaaba aadda bbabd adada aaada ffdad dddaa aadaa aaaaa aaaaa aaaaa aaaba dafaf adaaa adafa 
adaad faaaa afdaa aaaad dadda fadaa dagaa aafaa aaeda adaba aadaa aaaaa fafaa daada aaada adaaa 
aadaa daaaa aaaaa aadaa aaadd daaba afaad afafd addad aaaaa aafaa adafa daafa dadaa abdaa aaaaf 
adaad afada aaafa ffdaa aaaaa adaaa daaaa aaaaa aaaad ffdaa aaadd daaad aafaa aadaa adgaf aadaa 
aaafd adada aaaad aaaba adaaa aaaaf daaaa aaaaa aaaaa daaaa daaaa faaaa aaddd ddafd adfaa dgdaa 
faada aafaa aaada baaaa ddgdd aaada aaaad aadaa afaaa faaaa affaa aaaaa faaaa aaaaa afdad aaaaa 
agdaf ddaaa addaa daaaa aafdf aaaaa faaaa daafa abafa dadaa adaaa gadda faffa dddga afaaa adaaa 
aadda daaaa afdaa daaaa aaaad dadaa daaaa aadaa aaaad gadda aaaad adadd aaaaa afadd aabaa daafa 
aaaaa aaaaa aafab faaad addab aaadf fafff aabaa fdaag aaada daaad baaaa aadda aaaaa daada aadda 
daafd aaaab daaaa aaada daadd adaad daaaa aaagd addad aaaba addad aadaa aaaab adaaa aadaf daaaa 
aadad afadd aaadd afaaa afada adabd addda aaaad aaafa aaaaa abaaa aaadd aaaad aaada daafd aaaad 
aaada adaaa dbdaf dffaa dadaa aaadf adaad adada afdad faaba aaaaa aaaaa afdad daaad aaaad adaaa 
aaaad daaaa addff baaaa aaaaa aadaa addaa aaaaf aadaa dddad afafa dabdd bdaga ddaaa aaada baada 
adaaa aadfa aaaaa adada aaaad aaaad adaaf aaaaa agaad aaaaa ddadd aadga daada aaaaa aadaf affaa 
aaada addfd addaa ddaaa afddd aaada afbaa aaaaa aaadd aaaad ddddf adddf aaadd daaaa dbadd aadaa 
dadaf adaad aaaaa aafaa aaadd bddaa aaadb adada adaaa daaaa ddaad aaeaa aaada adada adafa aafaa 
adfaa aaaad adaaa faaad daaaa aaaad aafaa aaaaa adaaa aaaad aafaa aaaaa afaaf aafaa gaaaa faaaa 
fdafd aaadd aadaa dafda dadaa ddaaa aafad aadaa afadd faaaa adaaa aaaaa addad adfaa addfa aaaaa 
daaaa ddaaa aafaa aaaaa aadda dadaa adaaa aaaad afoda afaaa aadaf aaaaa dadba aaaaa aaaaa affaa 
afdad aadad aaabd aaaaa aaaaa ddded daaad aaaaa dfdba gaaaa aaaaa ffdda aaafa dfaaa addfa aaadd 
aaaad adaaa aaaaa aaada adaaa aaaaa daaaa dbdaa dadda afaaf aadaa aadfd aaaaa adaaa aadaa aaddd 
aadaa aadda dadda adaad aaadd aaaaa aaaad faaba aaaaa aaaga aaaaa aaaaf aaaaa aadad aaaad aaaaa 
addad aabad aaaad aaaaa aadaf daaaa faaba baada adaaa aaada aabaa aadaa adaaa aaddd adaaa addaa 
aadaa aaddd aadaa aaaaa aaaaa aaaaa aaada affdd aadaa adada dfaad fadaa aaaad baaab aaada aaaaa 
aaaba aaadd agdad faafa adaaa aadfa aaaaa aaaaa adaaa dabda addaa fadaa adaaa dafad aaada fadaa 
abdfa aadad dadaa adada aaaaa dafda ddaad daaaa afaaa aaaba aaada aaaaa dadaa adaaa daaaa daada 
adddd aadaa ddaaa aaaad afaad aaaaa aaaaa aagda aabaa agdda aaaad dddda fadda aaada daafa daabf 
aaaaa daaaa abaaa faaaa ddfad adaae adaaa adaaa daaaa aaafa daada aadaf bdaaa aaaaa faaaa aaaga 
afdaa aaaaa adada aadaa aaaaa aaadd aaaaa aafda badad aaaaf aadad adaab daaaa addaa aaafd ddaaa 
ddddd aaaaa aaaaa dddaa dadad aaafd aadab aadaa aaaaa dadfd aaada aabda dfaaa daafa aadaa aaaaa 
adaaa ddaaa daaad dgaaa aaada abdaa addda ddafa aaada afaaa bdaaa addaa daafd aaaad dadba faaad 
aafdd aaaaa daada aagda daaaa dfaad dafaa aadad aadaa daffa aaadd aabfa aaabd adaga faaad dadaa 
afafa agaaa aaaad aaaaa aaaaa aaada abaaa aaaaa adaaa daaaa baada adaad faadf daada daaad daada 
aaafa aaaad aabaa ddada faaad aadaa aafaa aaaaa fbaad aaaaa daaaa aaada ddaaa abadd adafd adafa 
afaaa addda adadd aadad aagaa afaad aaada daaaf aaaaa adaad aafda aaaaa aaafd aaaad faaaa bfaaa 
daaaa aaaad aaada adafa aaaad daaaa aaaaa aaaad afaad aaaaf adaaa aaadd aaaff aadaa aadad aagaa 
aadda aaadf ddaff aaaaf abfaa dfaaa aaaaa adaaa aaadf addaa aaafa aaaaa addaa aaaad abada adaaa 
aaaaa aafda aaadf daaaa aaaaf addaf addda aaaad adaaf afdfa agadb aaada daada aaaaa aadad aaafa 
dadaa daaaa adaaa aafaa aadfd aafad aaada aaaad aaaaa aaaad daaad aaaff aadff aaadd afaaa aaaab 
baaaa aaada aaaaa fdaad adaag dddaf adfaa addaa adaaf aaafa bddaa daaaa faaaf aaaad adaaa aabaa 
aaaae afaad aaaaf adaaa afaaa aaaad daadd aadaa adada aafaa aabda aafaa faufa addaa aaaaf adada 
affaa aafab faada daaaa aaadd aaaad daaaa aadaa adafd aaaad aaaaa baaaa ddfda dbdda fafda aaaad 
aaaaa aadad aadda adafd adaad aafaf afgaa aaaaa ddaaa aadad aaaaa dadda aaaaa aaaaf aaafd aafaa 
daada aaaaa ffaaa aaada aaddf aaada adafd aabaa ddaaa aaaaf aabda aaaaa aadaa fddaa aaafa aadab 
aaada adaaa ddgbf aaafd adaaa fdadd aaaad ddaaa abaaa dafda fadda agafg aaaad dafaa aeaaa afadf 
aabad aaaad aadfd aafad aadaf aafaf aabaa addaf aaaaa aaaad aadad addaa daaad adafa adaaa addaa 
aaaaa aaafa ddaaa faaae adada aadad afaaa aaadd aadaa adaad faada dafaa adaaa adgfd aadgd aaaaa 
daaaa aaaaa aaaaa aaadd adaea aadda daaaa aaaaa aaadf daaaa dadbd dddaa aaddf aaaaa adaaa aadaa 
adaaa addfa aaaaa adaad adaaa aafaa abaaa daaad aaaaa addaa adfaa faaaa aaadd agaaa adaaa daada 
afbad addda daaaf aadad adaad dbaaa faada daaaa aaaaa adaad aadaf aaaad adada eaead daaad daadb 
aaaaa faaad aadbd aaaaa aaagd aaaag adffd adaad aaaad adaad aaaaa adada adaaf agada dadaa adaaa 
aaaaa ddada aaaaa dadad adadd aaeaa gaaad bbfaa aadfa abaaf addaf adadd fdddd aafaa ddaaa aaddf 
ddaaa daaaa aaaad fabaa aaaaa aadaa ddfaa afaaf adaaa adbad aaaaa daaaa dadaa fdaaa dfdag aaaaa 
adaaa aadda daaaa aaada daaaa dddad adaaa aaaaa aaaaa adaaa aaaaa eaaaa aaadd abafa aadaa aadaa 
ddada afada aaaaa ddaaa afaaa aaaaf daafd aaaad dadaa adaaa aaaaa aaaaa adada addaa aaaaa aaaad 
aaada abaga faadf aaaaa aaafa aaaaa aafad daaaa faafa fdaaa aaaag addad dfdaa daaaa aaaad bfaaa 
badaa aafaa aadaa aaadb aaafa addad bfdaa aaada aaaba aadaa aaaaa dfead aoaaa abaaa dadaa dadda 
afaaa ddadd aadaa fadad abaad aaffd aaaub adfaa aagaa aaaaa aaaad afaad adaad dfaaa dafad adaaf 
addaa aaaaa aaafa aadaa aafaa adadg aaaad daadf adfaa addad aaaaa aaaaa dbdaa aaaaf daaaa faaaa 
dddaa gaada aaadd aaaaa ddafa aaaaa aaadd eafdg aaaaa aadaa aaaaf aaaab aafaa faadb adbba aaaaa 
aaada aadaa aaaaa aaada adada aafaa affad addaf aaabd ddadf aaafa aadda dfafa fdaad daadd aafaa 
aadad adaad daafa affaf aaaad aaaaa aaaaa abaaa fafaf daaaa adfdd aafaa fadad aaadd aaaaa adbaf 
aaaaa aaaaa daaaa adaaa adada adaaa aaaad dadbb adfaa aaaaa addff daada aaaaa daaaa aaada afaaa 
dfafd aabaa gaaaa aaaaa dadda aaaad daaaa daada daada daaaa addaa aaaaa aaaaa adaaa adada afafd 
aaaad fdadd abaad adddd aaafd aaadd faaaa adaad aadaa adbad aabaf aaaaa adaba aafda adada edaaa 
dadaa aadaa afadd aafaa aaaad afada dfada adadf aaaaa badad aadoa aadda dabaa dadaa aaaaa adaaa 
aafaa faaad adfaa adaaa aaaaa adbaa aaaad ddaaa aadaa addaa aaaaa aaaad daaaa dadad aaaae adaaa 
afddf eaaaa adada daaad aaadd ddfab afaaa aaaaa fadaa aadaa aaaaa aaaad daaaf daada aadfa afagf 
dadaa abfaa abadd aafda faada aaafa adfaa abaad aaaaa aaaaf aaaaa adaaa aaaaa aaaaa aaaaa aaada 
aaada adafa aaada aaaaa addaa aaada aaada aaadd aaaaa ffaaa bfaea aadaa afaaa aaaaf aadad aaaaa 
afaaa ddgaa aaadd fadaa aduad afdaa adaaa daaaa daafa aafda daaad aaada adgdd aaaad aadaa adada 
adaaa daaag aadda aaada faaaa daaaa aaaaa fadaa daadd daaaa dfaaa adada dadad aafaa adaaa aaadd 
aaaaa aaaaa abaab daadf aaaad adfad adaaa dafda aaaaa aadaa fadad aaadd daaaa aaada afaaa aadad 
aaaaa daaaa addad aaafa aaaad aaffd aaaaa afaaa aaffd dddad aaafa ddaaf aaaaa aaaad daaab addad 
aaaaa adaad fadaa adfad adaaa adaaa dffdd afada fdaaa aaaaa dddab dafaa aaaff aadaa aaaad aadfa 
aadaf aaaga faaga adfff afaaa aaaaa faada daafa daaff addda aaaaa eabda aeaaa aadag adaaa ddaad 
adaaf faaaa adaaa aaafd fdada aaddd aaaad fdaad fddaa aaaaf aaaad adaaf addaa aadad aaaab aaada 
aaaaa aaaaf aaaaa aaafd afaaa dfaaa aaaaa addaa aadaa afaad aaaaa bbabd addaa aadab aaaaa aadaa 
aaddd aaaaa aadab aaaff aaafd aaada daaaa daaaa aaada daaaa adaaa aaaad ddada aaagd aaaaa daaab 
aaaaf aaaaa abffd aaada aaaaa adaaa aadaa afaaa afaaa aadaa aaaaa ebdad daaad dadda aaaaa fdaad 
aadga agdaa adadd aaafa aadad aaada adaaa aaabd aaaaa adafa aaafa aaaaa afaaa addfb aaaaa faaad 
abdaa adaaa aaaaa adaaa dddaa addaa daaaa aafaa aadab baada aafbf dadaa aaaaa aaafa adaaa aaaab 
dfaaa daaab dfbaa aabaa aaaad dbffd aaaaa dddaa bdaaa dadda aaadd aaaaa aaada aaafa aaaaa aadaa 
adaad aafdd addaf aaaad fdaad aaaaa adaaa aaaaa aadaa aadfa aaaba daada aaada addfd aaaad adddd 
faada addad dddad aaaad aaaaa aafab addff gaaaa aaaad gffaa aaafa aaada abafa addda aaaba adada 
adaaa ddaad daaaa aafda daadd aadaa faaaa daaaa daffa badaa daaaa aaaaa abaaa aaaaa ddada adaaa 
aabad daada dadaa abdaa adaaa daada aaada fdadd aaada faada adaab aaaba aaaad aadda daaaa adada 
aadaa aaaad dadaa aaaad abaaa adadd aaaaa dabda dadaa aaaaf aaaaa afdaa agaad daaaf aadda adaaa 
addda faaaa aaaad aadad adaaa faada fafad abdda daada aaaad daaaa afaaa aaaab ddfda aaada aaaad 
dddda aaaaa abaaa addda aaaaf aaadf aaaad aaaad dafaa aadaa ddaba aaaea dadaa aaadf aadaa aaada 
daaaf aaaad fadaa ddfad daada aafdd fadaa adadb dfaaa aaada afaaa aaaaa dddaa aaafa fddaa aafaa 
aaaad adada aadad adgad gaaaa aaaad aadaa daaaa aaada aaada aafaa aaaaa aaaaa aadaa bdaaa addaf 
dffad aaaad aadaa daaab dfaad aaada adaaa aafaa aaafa ddaaa aadad daaad adaaa afada daaaf aadaa 
aaaab adaaa adaaa daaea aaaaa aaaaa aaaaa faaaa adaaa aadda aaaaa aaada ddaad aaadd aaffd daaaa 
adaaa daafd aaaaa aaaaa dafaa aaaff adaaa aaada aadda fabaa adfad aadaa aaaaa aaadf aaaaa faaaa 
ababa daaaf dadaa aaafa aaaaa aaada addaa aaada aaada aadaa faaaa aaaaa aaaaa addaa adada faaaa 
aaada adadd abdab fadaa faaad addad aadaa dafaa aadda adaad aadda aaaba adaba adaaa daadd aaada 
addda aaaaa aaaba fdgda aaaad adfaa dfaaa aafaa aaaaa adaaf agaaa faaaa addda addaa ddaaa aaaab 
aadaf dfaaf afada aafda daaaa adaaa daadb aaaaa faaaa aaaaa aaaaa aaada daaba ddaaa abgdf adaaa 
aaaaa abbda dadaa adfaa adaaa aaaaa adaaa aadda aafaa abaaa abdaf aaaaa aadad dadda faaab faada 
adada aaaaf daaaf bddbf fadaa aaaaa aaaad aafaf abdaa aadda aaada dbdda aagfd faaaa aaada aaafa 
aaaaa dadaa afaaa aaaaa aabaa afaaa aabaa abaaa dafda aaaaa aaaaf aaaaa aaaaa aaafa agafa aaaaa 
adaaa daadd dfadf fddaa dadaa aafad aaada aagdf ddaaf abafa dafad adfda aaaff afaaa aaada aaaab 
adadd aaaaa aaaad aaadd dadad aaaed aadad faaaa aadaa bdaad aaaaa aaaaa afaad daaaa aaaaf aaaaa 
fadfa aaaaa aaaaa aaada addaa aaada afada aaada aaaaa baaad aaaad bddad faadd addaa aadda aaaad 
dadfa ddfab afdad aaaaa aafgd aadaa faaaf dfaaa afdaa daddd adaaa aaaaf aaada aaaea adadd aafda 
aadaa aaafd aaaad ffaad faaad dadda adaad daaae aaaad aabaa daada addba addaa daaaa afaaa abadd 
aaafa daaaa daaaa ddaaa aaaaa aaada ffada daaad aaaaa aaadd aaaad aaaaa adfad aabad daaaa aaadd 
aaaad adaaf aaaaa aadda dadaa afaaa adafd faada aadad adddd daaaa dbfaf addag aaaad aabaa aaaaa 
adada aaaaa ddaaa dddaa daaad aadaf adada fadad faffd faafa ddaaa aaaaf aaada adaaa adada adfab 
aaabd abdaa addaa aaada aaada daaad faadd addaa aaddf aadad aaaaa aaaaa dadba aaaaa ddada aaadd 
aaada adaaf ddgdd aaaad aafda aaaaa aafaa ddada aaaag aaaea adada adbaa adaad dedaa daada adfda 
dfaaa baaaf dafaa faabd ddfaa aaaaa aafaa aaaaa ddfda adaba adaad aaaad afaba dbadf aadda aaaad 
aaaab badaa aafaa gbfad aafda aaaaa aaaaa faaaa aaaad daaaa ffaaa daaaf aaaaa daaaa aaadd daaad 
aaaaa afaaa aafda afada aadda aaaaa aaaaa faada aaaaf aaaaa aadda aadaa aaaaa daaaa aaaaa ffaaa