dafdd ddaad addda adfda ddddd ddadf ddfda ddaad dddda aadda aaddd adfaa adddd daddd daffm dadda 
afdfd dadda ddada ddaad addad dfadd ddadd ddadd adadd dfdaa dddda dddad dadmd mdddd aaddd daddd 
ddadd dddad dddda ddddd adbaa ddadd ddddd dddda ddaad ddadd addaa dadfd ddddd dddda ddddd dddfa 
ddddm mddad dmfda addmd adadd ddddd daddd afafd addfd daddd dadda ddfaa dfafd daddd adfaa dadfd 
ddadd aadda fadad ddada dddad dddda ddddd aaaad ddddd addda dadmd faddd adddf dfdda aadad dmdff 
daddf daddd daaad ddddd dddfd adddd ddado aaddd dafad dddad dafdd daddd ddadd aadda aaddd dddmd 
dddaf dddad mdfda daddm dadfd ddada dadad ddadd ddadd ddddd ddadd adddd dddda afdad ddaaf addaa 
dafdf addad daddd daaat daddd afadd ddmfd dffad fdddd dvdad ddddd ddtdd mvdda ddddd ddddd ddaaa 
dfaad daddd ddadd admdf dddda dddaa tdddd ddddd mfddd dadad ddada daadd dfdda dadda dddfd fdada 
ddadd ddadd dadad ddada ddddb daadd ddmad daddd dmddd dddda addam aafda dtfda dddaa dadda dddad 
dadad aaada ddadf ddddd dddda dddaf ddddd dddad ddddd dadmd addad dddda ddddf adddf daddd tadda 
dddaa faddf ddddd adddd addfd daaad dfmad fdmaa dafad dddmd adada daaad dddad damdd ddddd ddddd 
daadd ddddd adfdd ddada dmddd dddad addad dadaa dddad ddddd dafdm adada dddda adddd dmddf dfddd 
damad addaa dddad dfddd aaddd dadaa fdadd daddd addad ddddd ddddm dadad faddd daddd adaaf dddad 
ddadd dadaf adadd dfddd adddd ddtda dafdd mdatd adddd fddda dddma ddadd adddt adddd dadda dmdad 
ddaaa daddd dfdad mdddd ddddd dadda dddad ddddd addfd addaa ddddd dadda ddddd dddmd dddda fdddd 
fdddf fadda fdddd adadd ddadd ddfad aadda ddfdd ddadd ddddd ddfad adddd adddd aaffd ddddd adfdd 
daddd fddad afdda ddddf dddfd daddd ddddd addfd ddfdd ddadf ddddd mdddd dadad adddd ddddd dmdad 
ddmda ddddd admaa fdddd fdadd faaad ddbdf dafda daadd faddd dadbd daddf dfdda ddadd ddadd dafdd 
dmdfa ddmad daddd ddddd dadad afadd ddmdd adddd ddddd dafdd dadff dmddd adafd addfd ddfdf ddadd 
daadd dfdaa daddd doabd dbdad daddd dmada adddd admfd ddadd addda fdaad ddadd dddfd dddda dffaa 
dddfa ddaad ddddd dddda ddaad ddadd ddfaf ddddd daada dddtd dfddd dadda daddd adatd mddda aaadd 
dfaad adddd dadaa fdddd ddddd ddtat adddd ddddd ddada dafad adadd aaadd dddda tddda ddddd dmddd 
dadtf tadda dddda ddmdd ddddd dddda adadd dffda dddad fdddf ddfdd ddafd ddddd ddfdd dfddd aaddt 
dddad mdada dddfa ddddf dadaf tdddf mddfd dadda adddd adada fdddd ddddd dddad addda adddd fdddd 
adafd fdddd dddda dddda dddfa dmdad dadfd addda dadad ddddd faafd dfddd dddaa aadda addaa ddadd 
adaad adddd ddddd daddd ddddd fadaf ddddd dadtd ddddd aadda dfdda addad ddddd addad adddd dadad 
ddddd fdddm adddf fddfd ddadd dddda aadda ddddd addda dfddd ddddd ddaaa addad ddaad daddf ddaaa 
ddddd dfadd aaddd ddddd ffddd ataad daddd ddddd ddadd ddddd aaddd addda ddmda aaddd ddddd ddddd 
afddd fddda afddf ddmdd afddd dfadd dfddd daada daddd fdmda afddm fadad adddf daddm daddd addam 
ddddd dfaad daadd dddfd ddddd ddddd ddaad ddddd ddtfa fdddd addmd ddadd ddddd ddafa ddddd daadd 
ddddd daddd dddad fdmdd fdddd fddad dfdaf dddfm faamd dadad ddddd ddaad dfdad ddafd aadad ddddd 
ddadd adaad ddafd dffda ddfad dddfd faddd dddaa ddfdd dddmd dddaf ddaad adddd dfdaa ddaad mdddd 
ddddd dddad daddd dddmd ddddd aadma adtda dddfa ddaad adadd daadd admaf adddd adada ddffd ddddd 
adddd dddda adddd ddadd addda ddadd daddd ttaaa dddad ddadd fdafd ddddm dadda dddad dfadf taada 
dddaf aaadd ddddd daada ddddd aadda fdfad dfadd daddd dddad fdddd ddddd ddddd ddtad fdddd daddd 
ddfdd mddfd adddd dddad dddfd dfddd dadmd dddda dbmdd ddffd ddadd fadda faddd dfdda ddddd ddaad 
daddd daddd ddaaa daada ddafa dddda daddd ddafd addad dmaaf dddfd dddfd ddada adaad adddf dfddd 
dadad dfada ddmfd ddada ddddd dddfd dfdda ddddd dddda ddada fmdda dddad adddd afadf dddda dddad 
dadda ddddd dddaa dddmd dadda maddd ddddf dfadd dddad ddfda admda dmdfd ddada mdadd ddddd dddad 
addaa adadd tffdd ddfff ddddd adddd ddddd dddad ddddd daddf ddddd datdd dddad adadd oaatd daddb 
dmdda daadd adfdd ddddd ddaaa daddd aaddd ddadd ddfda ddddf ddddm dadaa daafd adaad dddaa adddd 
dddda admdd ddddd ddafd adadf adaad ddddd ddddd dfdda adaad daddd ddddd fdadf dddaa ddaam ddddd 
ddada adadd addda addad ddddd ddddm daafa dddda dddav ddddf fdfdm aaada daddd dddad addad adadd 
ddadd ddddf adadd dddad fdddd fdddd ddddd daddf aaddd aafdm aadmd dadfa dddfd dadda ddddd addda 
dddaa fdfdd ddddd addfd adafd fdadd ddddd aaddd adddd dfddd dadda fddad ddddd dddad ddddd dddad 
faaaa ddddd mddfa adadd madfa mddam dddda addaa dddda ddddf ffadd dddda dddfa dddfd ddadd fdfdd 
ddadd ddddd dadda ddddd daddm fddad fdddd ddaad dddda dfddd dadda dadaa dadam dddfd ddddd ddddd 
tadad admda addat dddad adfdd ddddd dddda ddfdd dddaf ddddd ddadd ddddd daadd ddddd dfddd dddda 
ddddd dddfd dddad afddf daddd dddfd ddddd mdmad dddaa dddaf daadd dddfa ddddd adadd ddadd dddmd 
aaadd dmdam dfaad dddad aaddd aaafd daddd dddaa ddfdd admdd addad daadd ddfdd aaddm fadda adaad 
ddddd ddadd dmddd daadd dddda ddddm adddd fddam ddddd dddad fdadf aaadd fadad aaffa daaad ddafd 
adfdd dddad daddf daddf daddd dddda adddd dadaa dddff daddd ddddd adddd ddfad adaaa dtddd dddda 
daddd fdfda adddd mmdda adada dfddd ddaad ddddd afada fdfdd fadda ddadd ddaaa ddfda adddd adddd 
dfafd dfdad ddada adddd daddd adadd dmffd daadd dmddd adddd ddfdd fadaa daadm daddf ddfam dfddd 
ddddd daddd daddd fbdff faadd ddddd aaadd dddda dfdfa dddmd ddffd dddad dfddd ddaad dmdaa adddd 
aaaad daada ddfdd fddad aaada mddda ffddd dtddd dadad dddam admfm daddm dddad fddaf ddddd ddfmd 
ddfda dmdda aaada fmamd ddfdd aadaa dadda dddaa afffd dddda ddddd ddddd fdddd fdddd adddd ddddd 
ddddd ddddd adddd ddddd ddddd ddaad adfda dfdad daama ddddm addad ddffa dfddf dfddd addda tddad 
daddd dfadd daddd adfda dddff dddaa ddadd fdddd ddadd dddaa dmamd dadff ddddd dfddd dmdad fdbda 
ddddd dadaa ddafd aadda daadf dddda dddtd afddd dddad fddaa daaad dddad dadaa dfddd ddfdd ddddd 
dadfa dddad ddddd ddmdd dddaf ddddf dddaa ddfdd bdddd daddf aadad dddda dddtd ffddd dmdaa dmadd 
ddddd adadd addaa dddad dadda dddad admaf aadfd ddddd dfadd ddadd fadad dadda dddda aadtd dddtd 
ddfdf afdda daddd fddfd ddddd ddafa addfa dfdaa mffdd addbd ddddf ddddd ddaad dddad ddaad dafdm 
ddddd dadad dabaa dddad dddda dddda ddmad ddddd ddadd ddddd dfddd adddd ddddf ddafd aaddd ddddd 
dbadd fdddd dddad ddddd ddddd ddddm dddbd ddada ddddd dddad ddddd aaddd adddd addda ddddf daddd 
dadda bddad aaddd afadv ddfdd ddddd daadd dddad daddd adddf dtddd adfad famdd ddddf mfdad adddd 
adddd ddddf dfddd adddd dadad addda ddaff ddddd faddd ddddd dddmd mdadd ddddd adfdd ddfdd ddddd 
dfdfa dmddd ddamd addaa ddddd dddda adafd dddad fadaa atddd ddmdd dadda aafdm dddfd ddddd dddvd 
dmfdt ddaaa ddadd dadfa dddda ddadd adadd daddd aaddf daadf dddda aaadf ddddd dddad ddddd addfd 
addaa ddadd ddddd daada mdadd ddfdd addad ddddd dddad tdddd dadfd ddffd addda dfdad ddada ddddd 
dafad tdadd fddda ddfdm dadad adddd dddda ddadd ddddd ddfdd adfdf dddda afadd dddfa dafdd adddd 
fddda adaad dddda daddf ddfdd ddadd aaddd ddafd ddadd adadd daddm fddmd ddada ddddd daddd adaaa 
daada aaadt dddaf dddda ddbdd ddaad dataa mddmd aaadf fdfad dadda ddadd aatad fdadd dfaaa aaddd 
aadaf ddddd ddadt aaadd ddaaa affdd dafdd ddada daadd ddddd aatdd daadd ddddd aamad aaddd ddddf 
daddd mdafd ddddd dddfd aaddd ddddf dddda dddda affdd dadfd dddda fmddd ddaaa ddaad ddddd dafdd 
ddddd ddddd ddddd adddd ddfdd dadda adatd ddddm ddafa dddda daddd addda ddddd mddda adddd dfddd 
ddaad dddfv daaad daadf fdddd ddfdd ddddd dddad ddddm dddfd fddaa dddfa daddd dddam daadd addda 
ddddd adada ddddd ddadd adddf daafd addda dddda dddfd ddamd fddad bddaa afddd ffadd addad ddaad 
dddtd ddddd ddfdd aaada aafad ddddd dfdda adddd dfddd dadad dddat dddad daaad ddfda aadad aaddd 
ddddd fdddd aaadd daaaf adadd dddda daddd ddadd dddda fddfd ddddd ddddd dfadf ddddd daadd dfddd 
adfdm fddfd madda fdtdf ddddd fdadd dddfd adaad dddaa addda amdfd afddd daada dadad ddddd affdf 
dadad ddddd aadda mdmff dddad dddff fdddd ddddd fdddd adddf ddddd dmdad addda ddadd daaaa afddd 
ddadd dddfa ddddf ddddf dbfad ddaaa ddddd ddddd fdddd dfddd adaad dadda dddfd dddad adadd ddddd 
addaa mddfa ddddd ddadd fdfad addaf ddaad aafdd fadda dddaf ddddf adadd ddddd amadd daaaa ddaaf 
aadaa ddfda ddatd ddddd ddddd ddadd dddda ddddd dfdda dafdd ddmdd mdddd adddd ddfdd ddfdd ddadd 
daddd davdd ddddd ddddd ddddd dfffd fddfd ddddd ddddd fddad ddfdt ddddd ddfdd faddd maddd amdmd 
addda ddaaa ddadd ddddd dddad adddd dddad dtddd ffafd aaddd addad dddad aaddd adddd dadad ddddd 
ddaaf adada dfdad ddddd aaddf ddddf dddda dddfa adddd dddad mddad ddddt addda adddd ddddd daddd 
affda ddddd ddadd daadd ddddd dddaf ddadd ddadm ddfaf dadad ddddd ddddd ddddm dddad adddd ddfad 
adtdd fdddf mddad ddaad adddd aadad ddaad ddadd ffddd addfd dddda fddad dddmd ddddd dfddd dmdfd 
ffddd adddd dddaa aadmd aaadd ddadd afddd fadda addda adamd daadd addam fdmdd ddaad daddd addad 
aaddd dddda fddaa ddfdd ddddd daddd dddaf aaadd dddaf bddad addad fddad ddddd adddd ddadd ddaad 
dfdfd dfddd dddma dadam ddadd ddadd daddd abddd dadaa dddda ddfda dddad ddtda adddd ddddd ddddd 
ddddd fdddd abddd ddddd daddd faddd ddddd aaadd aadad dfdda admda dadad dddaa ddddd adaaa aaadf 
ddddd addfd dfddd daddd ddddd dddaa adddd dddfd fmaaa fdadd dmdff ddddf dddda ddddd dddfa ddadd 
adaam dfadd dmddd daddd dddda fddad dmfad ddddd ddddf ddaad adddd addda ddmmd daada dadda adadf 
aadff daafd dddda daddd dfddd ddddd ddddd adddd dadad dddad ddfmd ddfmd ddddd dadda ddddd adddd 
ddddm ddfda daddd ddada dfdfd ddadd dadaa dfaad daafd ddfad datdd dddda dddaa ddadd vddad dfddd 
daddd aadaa aaddd dddda aaadd dddad dfdaa faddd adddd ddmdd daddd fdddd daadd dddfd adadd ddaad 
ddddm ddadd dadmd daddd adddd ddadd ddddd addda adddd mdfdd ddtdd dddda daddm daddd dadad addad 
ddadd aaddd dbddd adfda dddad ddfdd ifddd ddadd mdddd dtddd ddbaa adddd dfadd ddddd dadaf aaffd 
daddd ddfad ddddd ddadd dadad damda amdmd ddddd addda adadd dadda dddad adadd ddddd ddada dddtd 
ddddd dddtd mfdad ddddd adada ddddd ddddd adaaa daddd ddddd ddddd dddfd ddddd dddmd dmadd dadad 
dddaf ddddd ddadd ddadd dftdd dadda fdddd tddda dafdd ddada dddam dmddf dadda dddfd dddaa fdada 
ddfdd ddada adddd adddd ddddd ddddd ddddd ddaad dddfd addfd adddd fdddd fddda daddd ddddd ddddt 
ddama fddfd dddad ddatd daddd dafdd aaddd daddf ddaad ddmdd dadda dddad adddd ddadd addda aadmd 
daadd ddadd ddddd aaddd damaa aadff ddddd dfadd ddddd adddd adadd ffdfd adfda admdf ddddd ddddd 
dadda ddadd ddddd ddaab adfdf adfad ddddd ddddm ddddd fdddd aadad ddadf dddda ddddd ddfdd ddadd 
addda mdddd adada adddd dddfd adamd ddadd dadda faddd fadaa dddad adffa ddddd daddd ddddd mddda 
daddd fdadd daadd ddddd ddaaf ddddd iadaa ddddb ddddd mdadd mddda dafdd vdddd daddm dddaa dddad 
dafdd dddaa dmadd dddaf ddada ddddf dddfd addaa ddddd fdddd addmd amddd daatf ddadd dfddd ddddd 
mafad daada ddddd daddd dafdf dddda aaddd ddddd afdaf dfddd dmdda adadd ddmad ddddd faddd ddddd 
ddddd ddddd dddad dddfd daadd aaddd amddd dddaf dadda ddddd ddadd ddaad adadd daddd fadad ddddd 
adtad dddda adddd fdadd addad addad ddfdd dadfd daadd dtddd dddaa dadda ddddd adddd ddddd ddfdd 
dddda afddd ddfdd dadda aadad dadda aamfa ddddf ddada daddd ddmda fddda daaaa dfddd daada dddad 
affdd dddad dddad dddaf dmmdd ddfdd ddadd ddfda ddfta ddadf dafdd ddddd ddaaf ddfad daddd faddd 
dddda dddfd ffddd davab ddadd dadda ddddd daddf adddd dddad mdadf dadaa aaddd dddfd ddddd ddaaa 
afddd ddafd dddda adfdd adddd dadad dddaa dddda addda fddad addad dfddd dddam fadda adddd fdadd 
ddfdd ddddd adddf adddd aaddd dddda adddd ddadd adddd dddad daaaa daddd addmd dddaa adddd dfdfb 
ddddd adddd dddda ddafd ddddd mdddd fdddd ddaaa ddddd ddddd addfa ddddd tdfdd adddd fadda dddad 
ddfaa adddd ddaam dddad dadff dadfa dadaf dddda ddddf ddddd aadaa ffddd afddd ddffa aaddd dadda 
dddda dddtf dddaa ddddd aaafa aaada amdda aaadf dddma aadad faddd dddad dddba adddd ddada ddfad 
ddddd ddaad dfddd fdddd dddda ddfdd adddt afdda ddada ddfma dadfd afdaf adfda dddtd mdddd aaddd 
daada dafdf ddddd dddda ddddd ddddd ddddd afdda ddddd ddddd dddad adddf dadad ddfdd ddddd mdddd 
mddad addda daadd dddaa dddda adada ddfdd dddaa dadad dadaa adddd adddd ddddd dfaaa daddd daaaa 
dddda dffda bddda fddda dffdb dfdfa dddad daddf ddadd ddddd maddd ddaad ddadd ddddf dddad dddad 
ddddd ddadd ddddf ddddd aaddd fdadd ddadd dddda daddd daddd dfdda dadad tdddd aaddd ddddd dadaa 
mddda afddd mddma ddddd dadda ddddd ddddd ddadd aaddd afddd dddda daddd ddddd daddd dddad adddd 
adddd ddddd afdad ddddd ddddd daadd adfda adddd ddddf ddada dddda dfdaa ddadd adddd ddfda ddddm 
dadad dddad aaddd ddddd adfdd dddad ddddd daddd dddaa aaadd dddnf faddd dtadd ddaad daddd daaad 
fdada dadad dafam dfddf dammd ddddd addda addad dmdda ddddd dadda dtdad ddddd ddddd dddad ddadd 
aaddd dddad addda dddfa daddd dfmdd daada addda aadda ddddd aaddd dddda ddada ddddd daddd ddddd 
adddd ddddd dddad dadda daada aadda ddada aaddd dfdda mddda daddd addad dddfd ddddd ddddd aatdd 
adddd dddad fddaf ddfdd dtdaa ddadd ddddd ddada dddda adddd ddaad faddd ddddt ddaad dadff daada 
daddd ddddd aaddd ddddd ddada dmfdd ddada addfa ddddf ddddd amddd ddadd dddaa adada dafdd adddf 
afdaf ddfdf daddd addaa dadad bdfad dddfa ddadd ddddd ddddd dddfa addfd dfffd ddfda bddaf ddddd 
ddadd ddddm aaddd daddd daddd ddaad ddddd admda dddfd ddddd adddd ddddm dfadd daddd ddddd dddda 
ddadd dfdfa ddfaa adddm fddfm dfddd ddddd ddddf dddfm afddd adamd ddddd adadd dafad dddaa dddda 
dddda ddddd ddddd faddm aadad addad adddd daddd dfdmd ddfda ffdfa ddddd ddatd ddmad ddddd daaad 
ddddd ddddd admdd daafa ddadd daddd faadd ddddd dddtd adddd ddddf aafdd dddam dddda ddadd ddadd 
dddda ffadd fdadd afadd affdf dmdad ddddd ddfdd faddf ddddd dafdd aadad daddd ddada ddddd ddddd 
mdada dafda fadda ffddd dfddd dadda dddfd dadda dfada daddd dddfd mdamd addfd daadd daddd ddddd 
ddddd ddddd aaddd dddad daddd ddaaa aadda daadd fddfd afddd ddbdd dafdd dadmf daaad ddddd dafdd 
ddddd dadad dadfd dddad daddd ddada mdaad dadad ddadd ddddd dddad dadda adfdd adadd aadda ddaad 
dddda ddddd daddd aaaad ddddd dddfd ddddd adfda daada daddd ddddd ddfad adfdd dadad ddadd dddda 
ddfad mdadd dddad daddd dadda adddd ddadd ffddd dfdad dddmd dadft dadaa dfmmd mmddd dddad ddfdd 
ddada fdddd dadda ddada aaddd dfdad dbddd ddadd addfd ddfam adfad ddaad fdatd dadtd dddmd ddadd 
adddm dddad datdd ddddd adafd ddddd dddda ddadd aaadd ddafm dddda ddddf ddddm afdfa ddadd ddfda 
ddddd dadmf dddda dadad ddddd avada fdddd ddfdd ddddd adfdd dddaa adada ddadd dfadf ddfad dtddd 
ddddd dddfd ddadd adddd ddadd dddda faddd dtddd daddf fdadd dmadd adddd ddaad dfadd daddd ddddd 
addfd aaddd damdd fdaaa dddaa daddd dadad adfdd ddadd faddd dadda addad dfaad ddddf aaadd dfdda 
addfd addad fadfd admdd dddda dfdda mddaa fdafa ddddd dddaa dddda abddd dddaf fmdad dffdd adadd 
addaa faddd dddad dddad addad ddadd ddadf bddmd ddadd maadd fdada ddddd ddddd adadd dfddd aafdf 
ddddd dfddd tdadd daddd dfdaa aamat dddfd ffdfd ddddd dddad ddaad dfada ddddd dddfa fdddd addad 
dddda ddddd dddad fdddd ddddd ddadd dafad ddddf ddada adddd ddddd ddddd dddda dadda ddadd ddfaf 
adddd ddddd ddddd afadd adddd ddddd dddda adadd fdddd ddddd tdadd addad dddad ddddd ddddd dadda 
addaf adtdd ddaad dafaa dddfd ddddd daada ddddd afdda daddd dddad ddadd ddadd fmddd adddd adada 
ddddd adadd adddb dddad adfdd dadda mdddd adddf daddd fddfd ddddd ddddd ddada ddadd fdddd ddfdd 
dddda ddddd ddadd adddd ddddf aadad ffaad dadfa ddddd adadd daddf ddadd fdfdd ddadd adafa ddfad 
dadad adddd daddd dddda dfdad aaadd dddda adadf dddad dddad ddddf daadt adada adddd dfdda daatd 
ddadd adaaf dddad ddddd daddd ddddd dadad ddddd davfd ddddf dadad advff ddadf ddfdb daddd aaddd 
dddad ddddd dddfd aadda dddtd maaad ddddd fdffd dddda dddad ddddd dadaa daadd ddada fddtd aadad 
ddddd adddd damda ddddd dddad fdfdd dfdda amada aaddd ddddd ddddd daddd fdddd madfd ddddd dddda 
tdddd ddddd tdddm dddtd fddaa dddda ddtdd dadad afadd adada daddd baddt ddddd ddddd dafdd ddddd 
ddddf dddaa dddda addda dddfd dttaa ddadd adadd dfddd daddt fddfd aaddd dddaa dafaa afdfd adaaf 
ddadd fdddd dadfd daddd ddddd ddfdd fdddd ddaaa fadad adddf ddddd afddf adddd amdda aaddd dffdd 
dddam ddddd dadad addaa adddd ddada mfdfd dddda ddadf adtdd adfda aaddm mdddd addda addad ddadd 
fdddd dddfd adada dffdd dddda ddddd ddfdd addad dfaad ddada ddddd dfadm dddda adadd adadm daddt 
dfadd afdda ddddd fdddd ddddf ddmdd ddfdd dadmf ddfda ddddd dfadf dfddd ddddd dddfa ddddd adada 
dfddd adadd ddfat ddddd ddaad dddda ddtda ddaad fdmfd ddddd daddd dddad ddddd fddad adadd dmfda 
fafda mdddf fadda dddad ddddd dfadd dddaa dddda ddadd faddd daddf damda dddfd dddad dmddd dfddd 
dafda daddd adddf fadfd dafdd daadd dddad addad ddddd fddda ddadd dmddd tfaad dddad ddfdd ddddm 
ddddd dddad ddddd ddddd fdfdd ddddd ddadd ddddf ddfdd ddadd faddf dddaa dadda dfaaf ddddd dddda 
ddfdd addad ddadd dadda dfddd dmdad ddddd ddddd dddda dfaad daddd addaa dddad ddddd ddaad dfddd 
mdadd ddddd dddad mddda dfdaa ddddd dddda ddaad dfdad daddd addda fdfad dddfd addda daddd adaad 
amdad fddad dddad dddda dfdad daadd dddad amdad ddada adaaa dddff dmddd adada adaaf dfdfd dddda 
ddadd fdddd dddda ddafd dadda ddddd ddddd adaad dddad dfaad dddda ddfdd mmddd ddddf ddadd ddaad 
adtdd adaaf adddd ddddd ddadd fadmd ddfdd dadaa ddddd ddddf ddaad dtdda ddidd dadam ddddd dadta 
ddadd adddd ddfdf ddaad addda ddddd ddaaa faaam fddmd ddddd daadd daadd daddd daddm daddd dddad 
dddda dddad adada adadm dddad dddad dddad aaafd adaaa atddd madda daddd ddata ddddd adaad mddda 
ddddd adddd ddddm daada adddd addad addad dddad adddd dffdd ddaaf fdmdd daddd afdad dddaa ddfdf 
ddafd adadd ddddd dddad afddd aaddd fdddd adddd ddddm daddd ddadd daadd ddddd ddadd ffddd ddadd 
dddad ddddd fdaad adddd dddda daafd addad ddadd ddddt ddddd adadd dddaa ddadd daddd adddd aamdf 
daada addaa ddddd adada dddtd ddfdd dfdda fdddd fadad daddd ddddd adddm mddda madda amadd adada 
adddd aaddd dfddd adaad ddddd fddad ddddd ddddd adadd ddfdd dddfd mddda dmadd adddd aadad ddddd 
dfddd ddddd ddddd ddddt ddddd ddaad dddaa dddad dtdfa dfdda ddddd dddad ddddd ddmmd adddd daddd 
dddfd dddaa adaaa daddd daddd aaffd dddad fdadd dmddd ddafd maadf addad adadd dfmma dddaf addaa 
mdddd daafd dddfd dddfd adfdd dddmd dddaf adddd daddd afdda datad ddddd ddfma daddd ddddd daadd 
daddd damdd daddd ffdad faddd adddd ddddd dddad dddda addda dfdft dafdd dafda fddfd dddda ddada 
dddad dddda ddddd adddf addad ddddm ddddd dddad aaddd adfdd mdaad dmffd dadda dfafa ddaad aaddd 
adaaa addmd ddddd addda daddd ddddt mdadd dddaa dddad ddaaa daddd fddfd daddd adada addaa adddd 
ddadd adddd ddadd daaad ddddd ddadd dddda addda aamda dfada ddddf dddaa daadd adddd dddad adfad 
ddddd adddd dddad addaf mdaad dadfd ddddd dadtd adddd ddddd addfd daddd fddda adadd addda dffdd 
dddad ddada addaa afdad ddddd ddfaa dadad ddddt ddddv ddddd adddd ddadd dadaf ddddd dafdf dfdad 
fdadd daamf ddddd adadd daddf ddafd fdddd dddda addda adadf adadd daddd faddf dddad ddddd adffd 
daddd fadad adadd ddddd daada fdddd dddda ddaam ddddd ddadd atfmd adddd bafda ddddd dfddd adddd 
ddfdd dmddd daaad dadfa ddddd dadda dafaf tdfdd dmdaa dadda amddd ddddd dddfd adddf ddddf ddadd 
ddfda dddad dddfd addfd ddfda ddddd aafdd daddd daddd dbddf dddad dafdd aaddd fdaad adddf fdddd 
fddda ddddd dddda dddfd dddfm dddmd ddmaf aadfd ddamd adadd fdaad fadad ddddd adddd adddd ddfdd 
adaad ddaad ddddd afadd ddaaf adddd adddd ddadd adadd aadad ddfdd dfddd mdfdd ddddd ddddd addaf 
adddd dddda ddddd daddd dddad ddadd fddfd adaaf ddada fdddd adddd dmddd daadd aaddd fdmdf dddff 
aaddd daada fddad dfadd dddad ddadf ddddd fddda fddaa fdddf ddadd addaa dddfd ddddd fdada adddd 
ddaad ddddd ddddd aaadf ddddd aaddm ddadd addfd ddadd adddf ddddd daddd aaaad ddddd ddddd ddada 
dddff daadd ddddd dadda fdddd madmd dfdad ddddd daadd fddma daddd daddd aaddd ddddd ddddd dddad 
affda ddddm dadaa dddmd ddadd ddddf ddddf ddddf dddda dddda dddaf fdfat addda ffddd ddddd adddd 
dadad daddd adaad daddd daddd ddaad addda daddd faddd ddodd dddfd faddd afmad ddadd ddddd ddadd 
dadmd dddfa ddadd dmdad dddaa daddf ddfad daddf mddda adddm adadd addfd dadad ddddd ddddd dddda 
ddfad ddafd fdddf fddda adddd adddd dddaa dfdfd ddaad afddf dddad dddfd addda dddaa dffdd ddfad 
tdddd dadad daddd adadb fdadm adada daadd adtad adfdd fdddd dfddd dddad dddad dddma ddfdd ddadd 
adddd ddadt ddddd addad dddaf ddaaa fdaaa dddtd ddadd dadda afddm aaddd ddadd dddaa ddaad ddaad 
ddddd dddda aadaa ddddf dddfd ddaaa dddaa dafda ddadd ddddd ddddd ddddd aadda daadf ddadd ddddd 
admdd ddadd dfddd dmddd ddddd adddv dafdd ddada ddadd tddaa aafdd ddddb ddbft aaadd ddadt dffdd 
aadda dfddd fafdf ddddd adddd dadfa ddddd dadda addad dmdad ddddv dddda adddd adddd dddda dadma 
fddda ddfdm daddd daddd ddadd ddffm ddffd ddddd dddad ddddd dadda ddmdd ddfdd aaddd tddad dddad 
aadda atdmd dddda dddad ddaaa ddadd dmddd adadm dafaf dadtm daadf daddb aaadd dddaa fddaf aaddd 
adddf aaddd ddddm dfdda dmdfd ddada daddd dddad daddd ddaad dadad ddddm aaddf fdaad dfdda ddddd 
dmtda dadda mdddf daddd ddmfd aaadd ddddd ddddd ddddd aaaad dafda dddda ddadd daaad addfv fdddm 
addfa dddaa dadad dddad dadda dddda ddddd fadad addda adddf dddaa aaddf adddd aaddd dddda aaddd 
affda fdadd ddddm adtdd ddddd dddfd ddadd addad ddmfd dadma addaf ddddf ddadd aaadd adadd fddad 
daaft addda adddd dfadd adada dddda addaf ddddd dddaa dddda madda ddddf ddddd ddddd daddd adddd 
ddadd afdaa daaad adadd dadad addfa ddddd dadmd ddfam adddf dfdad ddada dddfa aaddd mdddd dadda 
adamd dddmd dfddd ddddf adddd dvddd ddddf dadad aadaa fddfd adaad ddddd dafdd adddd ddadd addad 
ddddf daaaf ddddd dddad ddddd dffdd dddad aaadf ddadd mdddd dmfda dddda ddddd admad adfdd dadad 
adddd ddddd ddddd mddmd fdddd ddadd dddfd dadmd dddad ddbaa dfddd dddaa daabd afdfa daddd ddddd 
maddf adaaa adddf ddddd aaddd ddddd dddad addda dmdat datdm ddaff adddd fdddd dadda dmafd dadad 
adddm ddadf ddddd ddddf ddadd dmdda ddada dddad dddaf ddddb dddfd ddddd dfdfd mddaf addda dfaaa 
ddddd aadad dddfd dddda mddaa daddd adfaa ddafa dfddd aadaa addaf addda ddmad atddd ddadd faddf 
dddad fdddd ddadd afdda ddddd dddda adadf ddfdd aaddd dddad dadda ddddf ddddf ddmdd fadda ddddd 
dfdda ddddd ddfdd dddda fddam aaddf daddd daaad ddddd dmdaf dfada dadad addad adadd dddfd dadad 
daada fdddd dddad daaia dddda ddddd ddddd ddadd fddaa ddddd ddddd aaddd ddadd ddddd dadad ddada 
adfdd fddta dfddd addam aaddd dddad dddfd aaadd ddaad dddda adada dbfdf ddada ddadd dffdd ddfad 
fdddd fafdd ddddd dddad dfddd dddmd dvdaf dmddd aaadd faffd daffd dddda dddaa daadd ddddd adddd 
dddda ddddd daadf fmfdd addda dddad dffdd tddaa dddaa aaadm dafad ddadd atdad dmada daddd aaddd 
ddddd dddda fdadd adatd ddadd dfadd ddddd madfd ddddd adfdd fadaa adddm ddddf dddai dmdmd fdadd 
ddddd fddda dddda daadd dfddd dddfd addmd afddd adfdf ddddm adddf daadd ddddd dddda dddfd dddtd 
daddd dddaa ddddd ddddd ddddd dddad ddddd mddad daddd fddbd faamd addad dfddd dadad ddadd ddatd 
daddd ddfdd dfada aadda atadd ddddd ddamd ddddd addfd ddddd ddadd ddddd adddd daddd ddddd dddaf 
daddd ddddd amfdd dddda fdadf ddadd adddd ddfdd ddddd ddddd adamd dddaf dddda addfd dddff dmmtd 
dfdda ddddd dadad dmdad ddadd dfddf adddd dddda adddd dddtd dfdad adddd tfadd ddfdd fmdda ddddd 
ddadd ddaad mdfdd ddddd dadaf addmd addad adfda dddad adddd dddda adadd daadf dddaa dfdda addad 
fdadd ddfdd ddddd dddaa dafdd dfmad ddddf daddd dddfd daaad ddfad faddd daadd addda aaddd dfffd 
ddada aaada adddd ddddd dddad dddda fdfad daddd dadfa daamd ddadd addad dtddd dmddm ddada dddad 
aaddd addda dddaf aaaad adddd ddadd adaad adddd ddddd fddda ddada dddaf dadda ddddd aadad addad 
adafd datdd bdddd ddddd adddd adddd fddad afada ddddd dfdaa fddda tdddd adddd ddddm ddaad dadaa 
fdddd dddad dddfa aaddf dadda daadd dadda daddd ddadd dmddd daddf dafdd dddda fddat dddda dddaf 
maddd daafd addda fdddd ddddd dddfd dfddd ddddd aaddd ddmmd ddddd adddd addaa ddddd ddddf fddda 
daddd dddfd dadad daddd adddf dfddd tfdda adddf daatd fdadd fdfaa amada dadda daadd ammdd dadda 
dddad ddddd adddf addfd fdadd ddddd afdda ddddd tdmfa tmama ddddt ddddd mdddf addad dddaa ddadd 
addda ddddd ddafd aadad aaddd dfddd dddfd ddddd dmddf ddddd ddddd adddd dddma faadd tdddd dtadd 
dadda mmaad daadd fadda ddddd ddada aadaa addfa dfaaa afdfd ddddd ddddd adddd dddaa ddddd fddfd 
dddda ddadd addda aaaad dddad dddaa admdd mdddd ddddd ddmdd adadd ddddd dddad mddad dafdd daaad 
adddd ddddd tdddd ddadd ddadf adddd dadad aamda dadda dddtd adddd dddad ddddd dddda ddfdd dddda 
ddaad ddddd dddda dddad dddat ddadd ddddd ddadd dddda daddd addad adaad dfdad ddddd ddadd fdddd 
aaddd dadad adbdd dddad dfvdd ddddd dadad ddddd atdda dddda ddddd dfdaa aaada ddadd adddd ddddd 
dadaa ddada dmfdd adffd ddadd ddada addad adddd ddfdd dfdda adddd dfddf adddd afdfd adadd fdddm 
adddd adaad adaad dddaa dddda daddd adaad dddaa ddddd daddd adddd daaaa dmdbd dddda addad ddddd 
aaamd ddadd ddadf ddadd dddmd addda dfdaa adddd dfddd dddfd ddddd fddad ddamf ddddm aadff daaad 
aadfa daadf ddddd dadad dddad dadad dddff aaadd ddadd dadaa ddmda dafdf ffddd dddad dddaa ddddd 
daddd fddda ddadf dddad dddad dddta dadad fffdd aaddf addfd dddad dadda ddada ddddd fddfd ddadd 
dfddd ddatd addda ddtfa datdd dddmd dddfd daddd ddddd dddda dfddt ddadd addda dddfa adddd ddfda 
ddddd faadf dadaa dddad dfddf ddadd adddd ddadd ddfdd dadad dddda ddddd ddfdd dadfd dmddd dddda 
dddda adddd dfdda ddaad mdaad fddaa daddd dddad ddddd ddadd faddd ddadd ddddd dfdaa ddddf adddd 
daddd ddmdd dddfa daadd dafdd ddfad dmmda adddd dddda daddd dddda daddf adddd dddfd ddffd fddad 
addda ddadd ddddd aaddd ddadd dvddd ddfdd dddad ddadd dddfm ddddd dddad ddddd ddadd dddad ddddd 
ddddd ddddd daadd ddfdd ddddd aadda ddddd dadad ddadd ddddd ddddd dmddd adddm adfda ddadm adddd 
dftdd fdddd admdd dddaa ddada dafdd addfd ddddd addaf ddddd ddddd mdaad ddada ddddd adfdd adtda 
dadfd addda ddddd ddadd dddfa dadda ddaaa dadaf adaaa dadad dfdfd mddda addda daddd ddddd daadd 
daddd addad dmddd admad dddmf dfdad afaad dadad ddadd adfdm afadd daaad daadd ddaaa ddddd fdddd 
dddad aadad dfdaa afadf fddad ddddd dddda daddd dddad ddddd daddd dddad dddad ddfdd ddddd addaa 
ddfad ddddd adadf dtfda ddddd drddd ddddd dddad ddddd dfdad dffad addad adfdd ddddd dddad ddmdd 
ddamf dddtd dddda fdadd dddad faddf dddda adadd afddd ddddd dadaa adddd ddadd dafad dddaf dddtd 
dddad ddddd adddd ddada daddf dddfm dddfa daadf ddddd mdddd ddaad damdd addad dddad dddad mdaaf 
aadda dddfa ddadd addad addad dafdd adddd ddaad dddad ddddd ddadd ddadd dadad dddta dafdd dafdd 
daddt ddfdd ddddf ddaad aadaa daddd adddd dfdaa adadd ddddd maddd fdadd ddddd dddda dadaa dfdad 
dmada ddddd dddaa daafa daddd addad ddddd dddda ddddf ddddd ddadb ddddd mdadd ddaad dfddd dadaa 
fdadd ddddf adfda daddf dafdd ddfdd dmdaf aadad mddad daafd ddddd ddfaa ddddd dfdaa aadad adaad 
addad daddm ddada ddtda dfdfd daddd ddddd adadd daadd ddddd dfdvd addad aaada adfft mddat ddddd 
ddada addaa dfdad dfdda ddadf ddadd dfddd ddaaa amdad dddad aafda ddadd aaada ddaad ddddf adddf 
ddddd dddaa daddd aafad adadd dadaa adadm dddad adddd ddadd ddada ddddd dfddd adddd ddadd addad 
dddda dddda dddaf ddadd aadda dddad adadd dadfd daddd dmdat dfddd dafaa afdda ddffd dfdfd dfddd 
ddada mddda dmdad ddadd dadad fddad ddfda dfadf ddddd fdafd dadfd adddd ddddd mdfda dadaf dmddd 
tdddd dadaa dddad ddadd ddddd ddadd dadad mddda ddada fdddf ddddd afffd dddad adddd dddda dddad 
fdadd afaaa ddaat dddmd dddfa aaddm ddaat ddddd dddad aaddd fftad dfddd ddddd addfa ddddd ddadd 
dddfa ddfdd ddddd dddam dddda dddaa ddaad dddad madda addda ddddd mdddf ddddd ddddd aaddd adaaa 
ddddd fddda adadd adddd addmd ddddd ddddf ddddd dadta ddddd ddddd ddfdf dtddd fdddd ddadd ddada 
daddd mtddm mdadd fddad ddada dddad ddaad daddf dddad madad dfddd faddf adadd ddadd adadd adadd 
ddaam ddfat ddddd daddd adaad ddbda ddddd adddd ddddd daada ddddd mafmf addad dddad ddddd dffdd 
addad dddfa dfdfd daddd atdad dddda adfad dddad adfdd daddd dddda fdddd afddd ddfda dfddm daddf 
dddda ddadd dfdda dfddd adfdd ddtad ddddd addad dafdd daadd fddad addda dfdad ddddd ddafd amadd 
adddd addad ddddd daaaa daddd dfddd fddfd dftdd daddd dmddd ddddd dadfa mdfaa ddddd adddd tadaf 
aadad dddda dadda adada dddaa ddadd addad ddddd ddddd ddadf dddad dddfd addmd ddddd ddddm dfadf 
maddd adddd adada adddd ddddd dadda daddd ddddd dddad adaad ddddd dddda adadm dddad dfdad ddddd 
addda dddmd ddddd tfddd ddddf dddfd ddffd ddfdd adddd adadd daddd dddad dfadd dddda dddff ddddd 
dddda daddd dddad ddddd ddddd afdad dddfd dddad ddddd mdddd ddadd daddd daddd ddddd daaad dddff 
daaad adadd adada addmd daadd dddda adfad daada dddaa daadd ddddd ddddd dddda ddddd adddd ddddd 
ddddd dfmaf dddfd ddddd dddda dddda dadad dddad ddddd dddad dddad ddtdd ddadd dddda ddmat afdad 
fdadd dddda dddda dfddf fddaa daddd dddda ddadd mdada ddddd dadad fdddd adaaa ddadd mddda adddd 
fdadd ddaad ddaad dddda adddd ddadd adddd ddddd dddfd adadd aaddd ddddd dddfd dddrd addad dafda 
amddd ddamm ddadd aaddd ddamd ddmfa ddada ddtdd ddama dfada dddfd daadd aadda faddf ddfdd addaa 
maada dataa ddfda dadda adddd adddd ddadd ddddd adddf dddfd aadad ddddf ddddd ddadd daaff dadad 
ddddd ddddd adadd ddadd dddad adaad adddd fddaf adafd dmdda ddfdd dadda adddd dfadd dddad ddddd 
dddmd adddd aaddf dfddd addad afdfd dddfd mdadd ddddf dmadd dddad dfaam ddamd dadfd addaa aadfd 
adddf dddad daadd dadad ddddd adadd aaddd dddmd daddd dadda ddddd aaddd dadaf dddad ddddd ddddf 
aaadd dddda dadad dddfd ddaad addad ddddd dfddd dddda aaddd daddd ddddm addaa fdaad dddfd aaddd 
amdaa aaddd ddddd ddddd ddddd ddmmd daaaa dadmd ddddd dddfd adadd maddd ddddd dddmd daadd ddddd 
ddfdd addad dddfd ddaaa ddada dddfd ddddd ddddm afddb ddtdd ddmdd ddafd dddaa faddd ddadd ddada 
dddmd addda dtdda adfda tdddf ddada dddad adddd daddd dddfd daaaa dddmd fddaa ddddd daddd dddad 
aaaad fddad amdad fbmda ddafa fdmfd ddada fddda ddddd ddddd adaad dftdd adddd dddaa adaad dadaa 
ddddf daadd dfadd adddd dmdmd ddadd dddad dddfd dfdda daddv dfadd daddd dddbd dddda mddda daamd 
dmmad ddddf aaada dfadd dddfa dafdd dfdda adadd dmdad ddadd madaa ddddd faadf ffdad fdada fmdad 
ddaad dadfd ddddd faddd fdaaa ddadd ddadd daadd dddbd ddadd fdddd afdad dddda dddad fafad dddad 
aaaad dddad dddfd addaa ddddd fadda daddd ddddd dddad dmddd ddddd daddd aaddd dtfaf ddddd ddddd 
daadd adadf dddda dddda dddda adddd ddadd madda damdd dadaa adddd ddddd daddd ddddd dfdda daadd 
afddd fadfd adddd amddd dadda ddaaa ddmdd ddaab ddddd ddfdd dadda ddafd daddd ddaat aaddd dfddd 
aaadd dfddd dfdfd addda ddddd dddaa afmad adddf dddad fddda ddmad adafa adddd adadd ddddd mddaa 
aaddd dafdd fddda ddtdd dddfd ddddt adddf daada ddaaa ddddd damdd aafdd dadad dmddd ddvdd ddada 
adddd dddfa daddd dddfd daadm dmddd aadad adaaa dadmd ddddd daddd ddadd dfdda dadda adddd aaddd 
dfddf daaad ddddm dddda dddta dafdd daddd aadda ddddd fdddd dadad aaadd adadd adddd dfdda dfddd 
mddad dafdd ddddd ddadd adfad dadad addfd ddadf dddda ddaaf fdddd adadf dddda addda fddfa addad 
ddddd dadad dddda ddaad daadf adaad ddddd adddd addmd dadad ddfdd dddaa afddd dfddd daffd addad 
dddad dtbaa ddamf ddddd ddddd dadad ddddd dafdm addda dddmm adddm ddddd dddaf dfdda dadfd ddddd 
fddda addfd adfdd aaddd mddda dddaa fddaa ddddd ddada ddddd ddddd aadad ddadf dddad adaad dddaf 
daadd dddda tddda adddd ddmdf daddd faadd adadd adfdd dddda addda ddamd faaaa dddff atfad adddd 
ddddd afmad ddddm ddadd ddadd adddd dddda adffa dddad dddad adafa dddma ddddd ddfdf dddad ddddd 
adafd aafad daddd afdaa ddddd ddddd ddddd ddadd ddadd ddddd dfddf ddadd ddddf admdd addaf adddf 
abmdd tdfdd adddd ddddf adadd ddddd daddd ddddd ddadd ddddt dadaf ddada aaadd ddddd dddad dddat 
adddd ddfad ddmfd daddd davdd aaddd ddddd daddd dddda ddddd ddddd dddad adddd ddddd dddad adadf 
daddd adaaa aadda dfddd ddddf dmdad dadff ddddd dddad ddddd dfddd daadd ddddf aadaa ddadd mdddf 
ddtdd ddadd adfdf dddfd daada ddddd dddtm dfddm dadaa addfa dtddd ddddd adfdd ddada ddddd dadmd 
dddaa ddddd adtdd ddddd ddddd ddddd daddd dfddd ddddf aadad dfaad damad ddfdd adaad afdid fddaa 
dfdad dddaa dadma ddbda dddfd dddda adddf fadad ddddd aaaad fdadd ddddd daddd faadd adddd fddaa 
ddadd adddd adadd dadad dddfa adadd daddd ddddd fdafd dddfd aadad ddada adddd datdd dddda dddda 
daada adddd dddaa ddddd ddddd daadf dddfd dtddd ddfad ddffd adddt dadmd dfdda ddadd dddaa damdd 
daadd ddddd adfaf dddda adddt dadaa aaddf dfdda badda fddda adddd daddd dddda daadd aaddb adddd 
fdddd dddfd adddf aadad dddad aaddf ddddd ddddd ddddm ddaad dadaa daddd ddaaf daddd dddad aaddd 
fdddd dafdd ddadd ddddd dmddd daadd ddfdd dadad ddadd ddadd ddddd dddaa addaf ddaad ddadd dddaa 
mfddf ddffa dadda dmddd ddddt ddddd fdddd ddafd dddad ddddf fdddd ddadd dadfd damdd fdddd addad 
adadd dadaa aaaad adfdd ddddd admda mfdaa addad dfdaa dfmda ddaad ddddd afddd ddafd fdfdf ddmdd 
dddtf afddd ddtdd aaddd adddf fdddd dddad aaddd ddadd adaaa ddadd dadad ddmdd ddddd ddada amddd 
dddad abdda dfddd ddadd dfaaf adadf ddddd ddaad dddaa aafdm ddddd dddda mamdd ddadd adada dbddd 
ddddd ddada ddadd dddfd dddaa adadb faadd daddd dadad dddda aafad aaddd adtdd adddd ddddf dfdta 
daddd adafd daddf ddddd adbdd aaddd adtdd ddddd dbfaa dadad dddad dadad dddda dddda fddad ddddd 
aaddd mdtdd dddad daddf fdddd ddadf bddda fdfdd fdadd ddfdd fdafd addaa daadd adada aaddd dddma 
ddddd daadd daadm dddda adafd daddd ddddd dmadd aafdd daddd fdaad daamd daddm dddda ddadd ddddd 
affdm dffad daddd dadaa fdddd ddddd ddfad dddfd dadad ddmdf daddt fafdd daddd dadfd dafdd mdddd 
adtad aaddb ddaad ddddm dddmf ddddd adddd dadbd adadd dddaa ddddd adfda dadam ddddd addda ddfda 
dadfd dadad ddddf addam adddd dadmd mdddd adddd daddd daddd daadd ddaad ddddd ddadd ddddd ddddd 
dmfdd dmddd aabdd dadda addda ddddd dadaa ddddd dfdaf ddddd daddd daddd amadd ddmdd dfddd ddddd 
ddddd ddada dadaa ddddm admfd ddfdd ddddd faddd ddadf dddaa aaddd dddda adddd dddmd ddddf dddad 
daddd dtadd dmdad adadd adfdd ddfdd addfd ddddd ddfdd dddfa admaf daddd adddd dddaa diddd adddd 
adfdd dadda dmdaf fddda maddd ddmdd dadfd addmd ddddd daadd dddmd mdfad dfddd dadda ddaad adddm 
mdaad ddbdd ddddd ddadm ddadf ddaaa dddaa fdddf addta dafda dddad fdddd bdmaa ddaad tdadd dadad 
faadd damad daddd ddaaa ddfdd ddadd addda adddd daadd ddadd aadad adddd tdddd ddddd ddada ddddd 
daddd ddaba ddddf dddda ddddv adada fdddd ddada ddaad adada dadfd aaddd daddt dddda ddddd afddd 
ddddd dfddd ddadf adadf fdddd fdddd ddddd dtaff dfdda dddad ddddd dadad afddf fdadd fdadd dddad 
addfd daadd adadd ddddd dadfd ddddd adadf adaad ddddd adddd dddda daddd addfd dfddf daddd aadaf 
daddd dfdda adfdd ddvad ddddd ddmaf ddaad dadam fdfdd addad ddddd dfffa ddmaf daddd dttaa daddd 
ddddd ddadd daddd aaddd dddfd dtadf adada dddam ddddd dddda dddmd maadd ddddf aaaad addaa mdddd 
dddaa mdddm addad dddda dadat ddadd ddtdd daadd daddd mddad ddddd dadda ddddd addad daddd dddfd 
adddd dfddd ddfdd ddddd ddadd dadda fdddd ddddd ddaaf adadf daddd dddaa mdddd ddama daddf dddmd 
ddddd fdadd ddada adddd adafd dddda ddddf adddd daafd dfamd adddd dfadd dadam ddddd addda dfddd 
dadaa ddddd mdddd dvamd ddddd dddda daddf adfdf dfddd ddadf dmfdd ddddd dddmd ddaad dfdam addfd 
dadda ddddf dtddd dddff dbddd daadd adfdd dmdda ddfdf dddfd ddadd aaddd dfdaa daddd fdddd dfddd 
aadfd ddddf dmada ddmda ddddd daadd aadda ddadd dddaa ddfdd fdadd ddddd dtdad dddat ddddd aaddd 
aaddd dddad addad damaa mdfdd ddddd daaaa ddddd ddaad dddaa iaddm daddd ddddd ddfdd dddaf ddddm 
fdamd adaad mddfa ddddd dddad adddd daddd ddddd ddddd dadda dddad dddaa adddm mdddd fdddd adddd 
afddd ddddd ddddd ddddd ddddd dafdd dfddd dfdda ddddd dddad dddad ddadd daada fadda dddad ddfdd 
ddddd ddddd adddd ddmdd dfdad ddddf dadfd ddadd aadda mdddd adfda daddd adadf ffddd aaadd dafdf 
ddaaa ddtdd tadda adddd daddd ddaaa ddddd ddddd ddaff daddd dadmd adaad dddfa ddafa dfadd dffda 
amdfa ddddd dddfa daddd dddad addad dddad dfdfd adddd ddddd ddddd daadd dddda ddaad dddaa ddddd 
dadad aaaaa dddaa faddd adddd ddadd afaad fdddd daddd adddd dddda dddad maddd dddad ddddd dddaa 
fdddd adadf ddfmd ddaad damdd dfada ddfdd mddad maffd dadad dafdd fadaa adaad ddtdd ddddd dddda 
dadaa ddfdd ddadd ddddd ddddd mdddd ddddd dmdad dddmd dddad dfddd addad adaaa adddd aadad dddda 
taffd ddddd daddf adaad dadad fdddd dddad dfddd fdadd dfdad dadfa ddddm daabf adfdd dfdad ddddd 
ddddd afdda ddddf dddaa adddd daada ddmad dfdaa adfdd dfaad aafdd aadmd ddmdf adfdd ddddf adfda 
dddda addmf dddad ddadd mddad daddd mddda maddm dadda addad aadda dddda dddda ddddd dddad ddaad 
daddd ddddd ddddm aaddd mddda faddd dddaa ddadd addda daada adddd dddad aadda aadda dadad dafft 
daada ddddd dddaa datda adamd adddm dmaad ddddd dddfd fdadd maddf ddfdd afaad dfadd dddam ddmdd 
daddd adddd ddaad fdddd adadd addaa ddddd dadfd fdddd dadad dafda adadd adaam dfdda adfdd ddmdd 
dddaa ddmdf aadda daddd dadad daddd aaddd dddam ddddd dddbd ddada daddd daddd fdafd dadda adfdd 
adddd ddddd ddddd datdm ddddf ddadd adddd admda ddadd ddddd afaad ddddd daddd daddd adfdd tddad 
ddadd ddmda ddddd dmdda ddadm adddd ddfdd daddd ddddd aadad ddddd ddddd daddd ddadd fadda adddf 
fdfbd adfdd tdmaa dddda ffdad adddd addaa fddtd dadaf ddddd addda dadad dddaa dadad addda ddadd 
dddma ddddd dfafm tddda amddd dddad daada daada dadff daaad ddadd aaddd ddada ddddd aadda daddd 
addad adddd daaab addmd davdd faadd dfafd daddd fdddd dadaa fdddm fddad dadad ddada addfd adddt 
dddfa dddda dddad dffdd ddadd ddatd ddada afdfd dddda ddddd dfddf madad ddaaa fdddd dfaad daddd 
ddfad dfada mdadd addda tddff ddadd daddd ddadd ddadm ddaad maddd adadd dfddd daddd ddfda ddfaa 
mddmd addfd dfdad adddd daddd ddmdd dddfd aaddf ddddd ddddd ddddf dadfd damad ddddd fadda aadta 
aaada dfdam ddaaf faddd ddadd daddm daaad dbfda afaaa daddd tdafd dadaf addfd aaada ddddd dmdtd 
ddadd afddd dddmd ddddd dmddd ddddd ddmdd ddfdd mddad ddddd mdaaa ddddd dfddd ddddd dmtda afddd 
ddddd adadd ddada daddm mddfa dadaf adaat fdddf adddf addda daddd ddadd ddddd fadad aadta damdf 
aaafd afdad adadd adaad ddddd dafdd dddad daddd adaad aadaf adadd ddddd ddadd dddam ddada dddda 
dddda ddadd ddddf dddaa dfdda fddad ddmad dddda daadd dffdd addad adddd dddad ddadd daddd ddadd 
ddada aadma ddddd ddddd fadfd adadd ddddm addda daadd amddd dddfa dddad dddmd iaddd ddddd addad 
madaa dddam ddddd dddda ddddd daddd dddad fddad addda dadda ddfaa addad dadad ddfdd adaaa dddda 
dmdaf dddfd dafdm dddad aadad ddddd aaamd adaad adadd ddddd ddaad adddd ddmda daddd ddddd daafd 
adddd ddddd ddddd adaaa ddddd ddddb daadd dmddd ddddd daamd ddddd dadad addff ddadm dadda ddddd 
vdddd dddda ddddf ddddd daamd dadfa ddadd ddddd dddaa ddddd dadfd ddddd dadda aadfd addaf dadad 
btddd dddaa ddddf dddda fmdfd dddad ddddd dmdad bdffd dddda daadd dmdda adddf ddada dfddd ddddd 
daddm ddadd daadd ddafd dadaa aadaf aadaa dfddd daddd ddddd aadda ddddd ddddd daddd dadaa ddfaa 
fddad ddadd adadd mdddd ddamd ddtdd ddadd ddtdd dddfd ddfdd admad ddada dddad adadd ddfdd adddd 
ddddd admdd ddddd fddaf fddmd fddda dfadd aaadd addda dfdma daaff dadad dfdda aadad fdddd ddadd 
fdmdd adfad dddaa aaddf daddd dadad dafaf dddad daddt dddda daadd aaddf addad dddad dfddf ddddd 
ddaad ddddd dddad ddadd ddaad adddd dddda dadad addda daddd fdddd dadmf dddaa adada ddddd afddd 
daddd adafd dddda ddddd ddmda adddd ddafd adddd ddddd aadad dadda mddad ddfdf dafdf ddaad addad 
fdddd ddddd ddddd ddddd ddmdd ddddd dadda tdfda addaa adadd amama ddddd ddfad dddad ddfaa ddddd 
dddda ddffa dfdad ddafd ddddf fdddd addfd ddada dddad ddadd ddddd dddda fdddd ddddd ddfdm faddf 
dddda adddd adddd ddddd famdd addft ddadd dddfa faaad dmada ddada dddad aafda dmdaa ddfaa dddad 
ddmdd ddaad fdafa addda ddddd fdamd fdaad dfadd ddddd fdadd mddaa fddfd ddadd dddad fddad dddaa 
ddadd dddaa ddadd daadd fddda adadd aaadd ddddd ddddd adaam dadaf adafd addaa ddaad ddaad ddddd 
aafdf addda fdddd fdddf aafda adadd ddadd adadf dadda ddddd dddda dmtdf ddddd ddddd ddadf fddad 
addda ddddd aaadd daddd adddf tddfd daaad fdddf ddddd dddda dadad faadd ddada dadfd ftddd mdddd 
aaddd adddf adaad dfddf ddfdd fdddf dfdad fdmdd daddd ddadd daddd ddddm daddd dddda ffdda fdddd 
aaddd adfmd daddd dddfd ddddd afdad ddddd ddadd addad fdddf ddddd ddddm fadda dfddd ddddd dddda 
dfaad dddad aadad adddd dfdaa addad dbdaa addad dddad mfddd ddfdd dddda dmddd damad dadmd daddd 
ddadd aaadd dddda ddddd adddd aaaaa ddadd dmddd ddddf dddda ddada aadda ddddd daadd addda ddadd 
ddadd maadf dddad daaad dddfd adada daada ddtdf ddddd dddbd adddd dddda dadaa ddddf ddddd ddadt 
ddddd ddddd aadaa ddddf aaddd adddd aadma ddddd dafdd ddddd adadd adadd ddamd faddd ddddd dddda 
adddf dddad faddd ddaad aadff tadfa daddd addfa ddddd addad ffmaa ddada dmddd adddd daddd dddda 
adddd ddddd aaadm dfddd ddaaa daddd dfddd ddddd aaddm dammd daddd ddadd daddd afddd dddaa adddd 
ddfdd afadd ddafd dddat aadda dadft dddad fddda addaf daada ddmdd fdddd afddd faddd ddddd dfddd 
daddd ddada dadad amddd ddfad dddaa daada dddad ddddd ddaad adddd daddd adddd dadad adddd ddddd 
ddddd fdata adddd dddfd fdddd dafdd dddfd dmddd dadda dafdd dadad ddabd aaddd adddd dfdda aaddd 
adddd adddd ddddf addda dfddd ddddd dfddd dddaa dfddd dadfd dddad dfddd dadbf dddad taddd daada 
aaddm ddadd daddd dddda adfad dddda fddmd adddd ddfad dadad dafdd addda ddaad dddda faadd dadad 
dfdaf dddaa aadda adddd ddddf ddmdd addad adddf ddadd adddd dddad adddd ddadd ddadd dddad dadda 
adddd ddadd ddddd ddaaa ddddm fdaaa daddd dddda ddddm ddaad fadad ddaad ddaad fdaad dmddd ddmdd 
ddada dddta adddd addad dafdt dadaf ddadf aaama fdddd ddamd aaadd ddadd ddddf ddddd mdfdd dafaa 
admdd ddddd ddadd adfda daadf ddaad addda ddddd dddad ddaad dddad dddda ddadf dddda ddddd ddddd 
adada adfdd fafaf ddmdd afada adfad ddadd adddf ddfdd dfafd ddadd addda ddddd adfdd damdd aidda 
mdadd fdddd dddad ddddf ddddd addfd dddda mdfdd dddad dddda ddadd dddda addad fddad ddfdd fdddd 
dddad maddd dddda ddada ddddd ddddd aaddd dfdfd ddffd dddfd dadfd dddad afmam dddda dfadd daada 
adddd daddf adddd daadd fdddd ddadf dddad dadad ddddd adddd adddd mddad daada dddma dffda daddf 
ddddd dddad adddm ddadd dddad dddfd dddda adada afdda ddadf ddddd daddd dadda damdm aaada fdaad 
ddafd fddad adddd addad adddd daddd daaaf ddddm ddddd ddddd ddddf fdddt ddddd bfddd adddd daddd 
adddm dddad ddadd adfad ddddd dddaa ddafa ddddd ddddd ddadd ddadd daafd adadd dddad addfa afdda 
dddfb dddad ddfdd tdfda dmadf ddaad mdfda dmdad dfadm dadad dddad dfddm ddadd daddm dmddd dfdda 
aadda ffddd ddaaf ddada fddda dddaa amfdd ddddd dddfa dddaa aaddf afdfd addtd fddda ddadd ddddd 
addaf dddda ddafd dadad faddd ddfdd dfddd ddada dmddd dddaa aaddd dddda adaad dadta ddfdd addda 
admad ddfdd dddfa dadda adddd ddfda aadfd ddddd dddaf ddddd dddad fdadd tdaad dddaa afadd ddddd 
dddad dddad fdada ddadd dddaa adtad adada ffdad adddd ddddd daddd dfdmd ddaaa aaddd ddddd ddddm 
dadad ffddd dadaf ddddd dddaf dddaa dfadd ddaad ddtad adadd dffdm adddd daafd addaa adddd adadd 
dddad ddada ddddd ddddd addda ddmdf ddddd adddf fdddf dddad ddaam daddd adadd addtd dadda ddaad 
dddda addmd fdddd ddfdf dadad dddda fddbd afdfd ddddd dadda fffdd addda daada addaa ddaam ddfad 
admff dadaa dddda dddad dddfd dddda amada daddd dddma addfm mddad ddddd addaf ddadd aafda ddddd 
addam ddmad ddddd adaad ddddd admdd addda ddddf ddadd dddaf ddafa dddda ddddd adddd adddd atddd 
ddmdd ddadd dmddd ddddd ddddd ddafd dddda adadf ddada adfdf ddddd dddad ddadf dddaa daadd dafdd 
aadad adddd dddad afddd ddddd ddddf famdd mdddd dddda dddad adddd ddfdd addfa dddaa ddaaa dfada 
dddad dddad ddadd ddafd adddd dadad fdddd dadaa ddadd ddddd dddad daddd adddd ddmda dmdaa aadda 
aadda fdadd dadad dfada ddadd adddd fddad addda addad ddadd fdbdd dadad daadb ddadd ddddd adddd 
dddda dfdda adaad dddmd dfaaa addaf ddddd ddada adfaf ddfdd dddaa adddd fdddd dfddd ddddd dddad 
fdadd adfda ddmad dddda ddfaa adddd dtdaa daddd aadaa ddddt dmdaa ddddd affdd dddaa ddddd ddddd 
dadfd daddd ddddd dddfd dadda daddd ddddf addfd ddddd dffdd dddaa addad dddda ddadd fdaad dddda 
dafad dfaaa dadff fddda dfdad ddddd ddddd ddmdd aaddd dtadf ddddd fdadd aavdd afadd ddaad aadfd 
ddadd ddadd fdada ddtad adffa adfam ddada ddaad aadfa dfdad ddddd ddfdd dafdt daddd ddfdd fdfda 
fmaad adada daddd ddadd addda adddd fddda dadfd aadad fdddd maada dddad ddddf dadda dfdda ddddd 
ddddd dadad ftddd addfd ddddf daadd ddddd daddd dddda ddmdd dddfd ddfma ddddd dmddd dddma aaaad 
ffdad ddfdd dadat dtadd ddada mamff addmd dddfd afddd ddaaa dfddd mfaaa dddmd dfddd dfdad dafdt 
admaa faddm aaddd fmdda ddddd tddda adddd dddda ddddd dddaa fadda dddda adada ddadd dddfa ddddd 
ddfdm dfmdd dddda aaddd dfdad ddddd ddddd daddd ddmaa aaddd dddda dddad dddaa mfada dddaa ddadd 
dfddd ddddd daddd dfdad ataad fdadd dafdd ddafd dmadd dffdd dadaa ddddd dadda aadfd ddddd aafda 
adddd ddddd ddtdd addfd dddaa ddddb ddafd aaddd dmdff ddafd dfadd aiddd ddddd addfa adddd ddadd 
dadad madad mdddd adddd ddddd adaad ddddf dddad ddadd fdaad aadda ddddd ddfda dddmf aafad dddda 
dtddd adada dmdfa ddddd fdfad dddaa dddfa adadd aaadd daddd ddfda ddffd ddada fdtda ddadd mddaa 
adddd dfddd adadd addfd ddddd dfdad adada aadda addaa adddd ddfdd ddddd adadd ddadd dadaa adada 
adadd ddfdd ddfad dmfdd ddadm ddddd fddaa ddaaf ddddd ddddf dfddd daaad dfmdd ddddd tdddd ddddd 
maada fdadf dddda adddd aaamd dfdda ddfdd dadad dddda ddddd daddd daddd adddt daafd dfddd dddad 
ddbdd adddd ddddd ddaaa ddodd aaadd dfaad ddddd dddfd aaadd fdadd dddda dfddd dfddd daaad mdada 
dddad dddaa fdddf ddddd addad aaddf ddddd dddda dadmd ddddd ddddd adddd faddd ddddd daddd daaaa 
ddadd ddddd ddffd ddddd tadda ddada daddd dddda dddda addad ddfdd adddd ddddd daddd ddddd ddddd 
dadfa aadmd mdafa aaddd ddddd mmmdd vdddd dfdda adadf adada ddadd dddda fdada daadd taddd dddda 
ddddd ddafa ddddf ddddd ddddd tddfd dfada ddtdd ddadd ddaaa ddadd adfdd adddd aaddd daaad fdaad 
adddd addff ddddd dtddd dddfd dddda dddfd ddadf daddd daddf ddddd dfddd ddddd dmdfa aaaad ddddd 
dadad daadd dddad daddd dddad admad dadda daadd dddfd ddfdd dadad addbd dadda dddfd daddd aaddd 
ddddd ddfdd dmada daddd ddaaa ddddd ddddd adddd adada adadd dddda dadda dddda adddd dddda ddddd 
ddddd dfddd aaadd ddddd tafaa ddddd dddta daddd ddddd dddad adffd daddd ddddm atadd dddad dddfd 
aaddd faadd ddddd dddda dafdd fdaad ddddd dddaf ddddd dddda ddddd dtadd ddmaa adadf aadda ddfdd 
ddddf dfdfa dadfd dfadf dadfa dmdaa ddadd dddaa adaaa ddddd ddddd dafda dmdad ddfdd ddddd dddaa 
ddddd amaaa faafd ddddd ddddd dafda dfadd mddda ddadd adddd daddd aaddd dddda ddadd faddf dddad 
aaddd dafda dddma ddddd ddada ddadd ddaad adadd dtddd damdd ddddd dddda aaddd daaaa ddaaa daadf 
adbdd dddda daddd dddda dfdad daddd ddadd daadd aadfd ddfdb dddad dddfd ddddd adbdm dddaa fadfa 
ddadd ddadd aaddd dddad dddaa fdddd addda dddad dmmdf dddfa aafda dddad adddd dddad daddd aaddd 
dfddf daddd ddadd ddddd dfadd ddddd dddad addad daddt dadda ddadd fdddd baddd fadaf dddad dddda 
ddfdd daafd aadda dtadd adadd tdfdd dddaa adada ddaad dddda dafbd ddadf ddfdd bdddd daadd daafa 
addaf ddfdd ddddd mddda dfddd dadff adddd ddddd ddddd amdda aadda addad mddad ddadf dddad ddfda 
adaaf dddad ddmdd ddddd dadad ddfad dddad aaaaa aaddd ddada dfddd ddfad fdadd addaa ddafa ddddd 
daafa daddm ddddd ddddd ddddf daddd dddaa ddddd addad dfata dddaa dddda ffadd fdadd mddda ddfdd 
fdadd ddddd ddddd dddbd addad ddddf adfdd dfdfa aadad ddmdd daddf ddaad adddd dddff dddam ddddd 
fadda afddd ddddd dddda dddda dddft aafad afddd daddd afdaa dafda fdddd ddddf dadad faadd adddf 
adddd daddd daafd dddfd ddaad addda ddddd idata aamad adddf bfaad mdada dfadt ddddd adddd ddddd 
daadd ddddd ddadd dtdma adddd fdddd dfdad dadad dafdd daddd admdd ddddd adddd ddatd adddd dddad 
daadd aamda addda ddddd daddd dafdf dddda dddda ddada dddad dafdd dddda daada ddddd ddffd ddddd 
dafma adtaa fadad ddadd fadfa daddd daddd daddf ddadd adddd daddd addda daddd fdddd dafdd ddddd 
fdddd dtdfd adddd adddd mdddd damdd adddd ddddd ddddf adada addad dffad ddddf ddfdd aaddd ddddd 
ddddd dddad dadad dddad addfd adddd aadaa dadfa dddda diddd daddd ddfda ddfdd ddadd adtfd ddddd 
daadd dadda dadad dadaa dadda ddddd daaff amfad ddadd dmdda fdaaf ddada ddaff ddfad fdaad dddad 
bdddd ddddd adfdd addaa dddad ddmmd ddada fdddd aaddf ddaaa dddad dffad dadda adddd ddddd addfd 
ddaad dddda dadaa ddddd ddffd dadam daadd dddfa tdfdd ddadd dadaa afada adadd dddda ddadd ddddf 
dadad dadda ddddd adddf afdfd aaddd addad dadad ddfad ddddd daafd ffdda aaddd ddddd ddddd dafdd 
ddaad ddddd ddddf mddda adada dmddf madad fddad daaad ddddd daddd dddmm daddd ddvaa ddfdf ddaaa 
dadad daddd daddd adddd ddada fdada dfdad adfff dddad dfamd dadad dddaa ddadd dddaa ddadd daadd 
ddadd ddddd ddadd dddfa daaad mdddd afadd addad aaafd dddfd ddada daddd daddd daddd dfmdd ddddd 
dddfm ddddd dmadd faddd ddfmd dadfd ddadd dadfd adddd dddda ddddd addda ddddd fdddd ddddd daddd 
ddaad ddadf dddad daaad dddda dddda dddda mddft ddddd daada dadad dmdad ddadd aadda dddda mdddd 
ddddd daadd dddda adddd ddddd ddddd aaddd ddtda damdd mdfdd dddaf amadd ddafd adddd dadad adfdd 
ddaad ddddd ddddd adfdd mdddd aaddd dddfd addad addaa dadda dmfdd addad ddadt ddddd addad daddd 
ddddf ddmdd vmdda adddd amddd addda adadd dddda dddad addda adddd dtdad aaaad dmfad ddddd ddfdd 
ddddd dddda dadda ddaad afdda bdddd mddda daddd ddfda ddadf ddaaa ddddd mdddd dddda ddddf dddad 
dddma ddbdd dddda ddaad dafad ddddd aadff mddfd adddd dmfda dddaa dddaa dddma ddadd dbddd mdadd 
dfddd faadd dmddd daddd daada dddfd daddd dfddf dddfd dddda dfadm daddm adfad daffd dddff dmddd 
adfdd ddadd dadad ddddd dfadd ddddd adddd fdddd dddad admda dafma dddda dfadd adaat addmd dddda 
ddddm fddda dadad ddddd ddadd ddadm ddddd adada daadd dfffd dmddm fdmfd adddd daddf dadda dddda 
ddadd daddd adafm ddddd daaad ddddd daddd addda fddma dmdda dadaf dadam adadd fadfd dddda ddfda 
famdd ddddd adddd ddadd afaad addfd ddddd ddafd ddddd mdamf ddddd bdddd dddad ddddd ddadf dmdda 
dddaa dddfd dfdda ddaad fdadd dddaf adddd ddddd dfddd adamd mdadd dddda dadda addda mmdda dadda 
dfdad dadaa daada dddaa adafd adffa ddfdd ddffa daddd ddddd addad dddfd adddd adadd ddfdd tddmd 
fdada dfdda ddfdd daddd addad ddadd aadad dfmdd dddad dddaf ddada daddd dddda ddddd daddd ddddd 
ddaad damdd dmdda ddfdd ddddd daddd ddaaa dfdda dddfa dddda dddma dddff adddf dmddd ddaad fdmdd 
daaad addad dddad adddd ddfdd fddaf ddada mddda adddf ddddd dadda dadda ddfad ddddd fffdd dddad 
faddd ddddm ddaad daddd ddddd madtd ddddd dddad dafda dfddd adddd ddddd dddda tdadd dfdda ddddd 
ddddd dddaa ddddd fdddd fdddd adddd faada addfd afdda addda ddfdd dafdd ddddm adaad fdfdd ddadd 
dadff daddd dddaa daadd adaam dddff ddddf dadfd ddadm adbad ddtdd ddaad daddd ddddd ddddf ddddd 
daadd ddddd ddadd aaadd ddddd addda daddd adfad adamf dadda dfadd ddddd ddddd mdmdd daddd afddd 
dddaf vddad fadad addad dddda daddd ddfdd dfddd fdddd daddd ddada addmd aadad fddad dffdd daddf 
ddadd dmddd aadad ddada ddddd addda ddffd fdaaa addda dvdda ddddd ddafd dddda dddad ddaad dddad 
faaaa dddfd faada dadda ddfad aaadd famdd dddfa dddad dddfd ddddd dddda dadad addad dafdd ddadd 
daadd dddad mddad dmdda dadam ddddd adafd ffddd dadda dadfd ddmad adadd dadad adddd ddfda daaad 
ddadd dadad daadd ddaaa dadda dddda ddddf ddadd ddaad ddfdd addda dmdfd mfdmf dddft dddad ddfaa 
ddddd dtddd dddfd ddffd ddaad daddd ddddd ddddf ddada ddfad fatdd dddda fdddm daadf dddaa ddadd 
dddda dadda dddda dddad dmmdd dddda addda addda ddfdd dadda ddadd daddd ddddd ddddf dadma dadad 
ddddd dfddd aaddd daddd aaddf ddaad ddddd atdfd ddfdm adddd dddaa ddaaa mdddd ddadd dddda dddda 
aaddd aadaa dfdfd ddadd dafad ddadd ddamd dddad ddddd mddda dtddd afdaf daddd affad dfdaa daada 
addda ffdad adadf adaad dddda ddadd dadfd ddddd ddddd adddi mdadd dmadd dddad dddad ddfdd ddddd 
tdada fddfa aaddd dddaf fddda ddddd ddddd fdada fdddd mddfa faddd adddd ddddd dddda dddfd adadd 
dddad ddddm ddddf dddda ddadd dddad dddmd daada ddddd ddaaa adddf adddf faadd ddaad dffda ddadd 
daada mdddd dadad dfddd dfada dafda ddada ddddd addad mfddd ddada dadda fafma ddadd dddaa aamdd 
dadda daaad fdfdd aabdd mmfdd adbdd dfdif ddaad adddd maadd dddaa atdfd ddada ddafd fdddd dfadd 
ddddd ddada dfdtf ddddd ddtdf ddadd addaa addad ddddd atddd aatdd addda dddaa ddafd ddddf dddaa 
aaada ddddd ddddd adada adddd dfamd daadm ddadd dddad dfddd ddfda daddd aavdd dadfd ddddd dafdd 
dmdda ddddd dfdmt addad dddfa dfmdd aafdd ddadd dddad ddadd damad dddad ddadm vdadd dadda ddddf 
dfddd daaaa ddddd mdada dddmd dafdd ddddd dddfd adada dfaad dadda dadaa tdfad ddadd adddd addad 
ddvdd mdadd ddddd dafdd ddada dddaa aadda adfdd ddddd ddadd ddmad dadaa adfdd adddd ddddd ddfda 
dfddd dddda daddd daddd addda adddd ddddd dddad fddfd addda tdddd aaddd ddddd fdadd dddad ddddd 
adddd daadd fmdda dddad adddd afafd daddd ddadm daddd aaddd adddd dddad daddd ddaad ddddm dddaa 
ddddd dddvf faddd ddddd ddadd mddfd ddddd tdddd fdddd ddddd daddd ddfdd mdadd ddddd mddaa daada 
ddddd maddd dadda adddd dadda ddadf dddad ddafa ddddd adamd dfddd ddadd daada ddddd ddama dddda 
dfdad addda dafdm fmdad aaddd ddada aadfa dfdfd ddaad ddddd fadaa ddddf amdda adddd ddaad ddddd 
dddfd adadd fddfd fdddd ddaaa ddffd ddatd daddd fdfda dtdad mfdaa dddaa adddd dddaf ddadd adddd 
ddddd ddddf daddd dfaad ddadd ddfaa daddd ddddm dfddf adada addad ddddd fdadd ffadd ddadf dddda 
dadfa ddddd addda daadd addfa dafad ddadd ddadd fdmda dadaa ddadd ddddd adddf fddaf dddad ddada 
dadfd mdddf ddada adddd dadda adfdm adaff daadt ddddd fddaa ddmda daada ddddf fmdaf ddtad dddaa 
dfddd fdddd addfd adddd daadd ffadd daddd aaddd ddadd aadad adadd dddad daddd mdddd ffdfa ddaad 
ddddd ddddd mdfdd ddddd addfd dfdad ddmdd aadaf fdfdd dddad daadd daddd ddada dfadf dadad dfdda 
dadmd adddd dddda daddd adddd ddddd aadma dadad ddadd dddda dadad adada dddda dadda ddddd ddddd 
ddafd dfddf ddddd ddddd dddad aadat dddab daada dfddd dddda dbfda daada ddaad bddam tdddd ddddd 
ddddd dmfdd ddfad ddddd dfddd dddfa afdad ddadd daddd aaddd dddaa ddada dddad daadm ddfdf aadfd 
addda ddddd fdddd addad ddaaa faddd dddda fddff dfdda ddada bdddd dddad ddfdf dddda dddda ddfdd 
dddda dadda ddddd faddd aaddd dmaaf ddadd ddddd dmdad daadd ddddd ddddd addda daaaa dddaa ddddd 
ddadd dafdd aaddd ddddf ddddd dddaa dddda ddaaf admad ddmda admdd daddd adddd dddda dfadd adada 
aaddd dddad ddadd addad ddddd dmddm ddddd ddddd ddddd adffa ddada adddd adddd ddfdd ddddd ddddd 
mddad dddfd ddddd ddvdd adddd ddddd ddtad aaddd dddda aaadd dfddd ddddd dadda ddddd ddddd mfdad 
ddddd adddd ddddd ddddd ddddd addaa adddd ddddd dadda daddd dmfad daddd dfafd adddd dddfa ddddd 
dmddd dfdaa dfafd afddd ddadd adddd fddad dddfd dfddd ddddd ddddf dddda ddddd dadad fadad ddada 
tddad aafdd ttadd aaddd afddd dadda dadad aaddd dddaf dadad dabdf fdadm dadda dfdda aaddd aadda 
dddfd aaddf addda aaada dddaa fdddd ddddd dddfd dddad ddadd ddddd mddda dddad addda ddaad dfdaa 
ddadd addda daddd dmddd ddddd dadam ddtdd duffa ddtaf dddad dadaa aaddd fddfd amdaa ddddd dddad 
ddadd adddd ddddd daada dddad maddd ddddd dfadd adddd daaaa dddda ddadd adddd dddda ffddd ddddd 
adfdd dddad dddfa dbdmd ddadd aadfa mdddd ddfdd mafdd aaadd dddfd mdddd ddadm ddddd ddddd dddfd 
fdmdd dddda dadad dadaf daadt dddda ddadd dmddd adddd dddad ddddd dddaa aaddd aaddd dadad ddddd 
dfdmd fdddd ddaad adddd dfddd daddd ddmdd dddva dddfd dddmf afdda dadda ddadd ddddd ddddd addad 
dddad ddddm dddad dafda aadaa ddddd addda ddddd daddd ddddm ddddf dadmd aaada adaad ddaad addda 
addda addaf ddddf ddddd ddddd ddddd ddddd dadaa aaddd ddddd ddadt dadaa fddda ddafd fdddd ddfdd 
dafvd dddfa ddddd addaa dddda dfdam ddfdd dfddm ddfma dfdda ddaad ddddd dfdfa daafd dddda ddddd 
adddd ddmdd dddda ddada ddadd dddfd ddaaf ddddd taddd aaddd addda dddad dddaf ddaad dddad ddddd 
daddd ddaaa dddda ddddd ddadd ddddf ddadd ddaaa ddbda dfddd afddd afmdd ddddd adddd daddd mddad 
ddada ddafd daddd tddda dddad dddaa adddd dddfd ddddd addad addmd adddd aaddd dfddd dddad daada 
ddmfd ddddd dbdad ddadd mfddd ddaaf ddfdd adddd dfdad dddad daadd aaddf dfdda ddddd dddad dadda 
ddddd dadda dadad adddd ddddd dmdfd dadda dddfa dtadd dddad adddd dddda ddmfd dddda mdffm daddd 
mfadd ddfdd dddff ddfta dddad ddddd addaa ddadd daddd adtdd ddddd adddf ddfad daadf atdaf dadad 
ddddd tdafa dafdd dddmd dddad ddamd mbadd adadd mdffd daddd aaddd daadd dddad daadd fdmdt dfadd 
dddda daamd ddfdf ddfad dfadd ddddd daddd ddddd ddddd daadd maddd aaddd dddaa adadd ddadv dfdaa 
dddda dafad fdddd dfddd ddddd ddddd fddda dtadd afaad ffadd aadfd daaam dabfa addda ddddd ddddd 
ddddd ddatd dffaa ddddf aadmd ddaad ddaad ddfdd ddddd dadda dfdaa ddadd daddd fadad dfddd dddda 
ddddf dadda ddddd fdadd ddddd ddddd dtafd ddddd fdadd dfdam ddddd daadd adddd ffaaf addmd ddadd 
dfddd ddadd ddadd ddadd ddada ddddd daadd adddb adadd dafdd daadf dtdmd aaddd dfddd addad dddvf 
daadd fdadd dddad aaddm dddda ddddf daadd dadfd ddafd daddd faaad fdddd dadad adadd ddadd adddd 
bdddm ddddd aadaf adddd dadda ddtda ddfad adddd daddd dddfd daddd afdad dddda adddd adddb dddaf 
fdadf dddad fddad amadd addad mafad afddd ddddd dafta dddad ddddd dafdm ddfdd ddddd ddddd ddddd 
dddda ddaaf dddfa daadd daadd dddaa ddada ddddd dddad ddddd dddda daddd dtfad dadda fdaad dddad 
dfffa ddddd ddfda afddm ddddd ddaaa ffddd dadfa amdfd fdddd adddd ddddd dddda ddddd mffaa afddd 
ddddf dddaa dddda dmdaa adddf fdddd dddfa daddd adaad daddd adddd dfaaa ddddd dddda damdd atfda 
ddddd mdddd dmfdd fddfm daddd adaad fmddd ddddd dddda ddadd dddda ddfad dadda ddadd dadfd dddda 
mdadm adddd dddad dddda dddad aadad ddddm ddmdf ddadd adadd ddaad ddddd faaad fdfdd dddda ddddd 
adddd dddaa dddaa dadad ddddd dfadd ddaad damdd ddddd aaada ddddd ddddd daaad admdb fdddd ddfdd 
ftddd advdd adddd ddddd dddad ddddd aadad ddadd ddddd mdddd dddda dddaf ddddd daddd dddda ddaad 
dddda afmad atddd amddd dddda dddda ddafd ddddd ddfaa ddadd dddad maddf ddafa dddaa ddddd dddda 
dddad bamda dddfd dfadf ddadd adffd daadd ddddd dddtd ddddd afdft ddddd dddda bdfbd ddfad daadd 
ddadf daadd addda dfddd aaadd adadd ddadd ddtdd aafda ddddm ddddd ddddd dmdmd ddada dddda dddfd 
abadd adddf fddad daddd dafdd fdafa adfad ddddd admdd dmdfd daddd dafad ddddd ddadd ddddd daddt 
dddfd aaadd ddddd adtdd adfdt daadd ddddf dddda dddda daadd ddfdd affdd aaddd daaad ddada ddfda 
ddfad ddddd aaafd tddda ddada dddda addda adadd ddada dafdd atddd daddd afadd daadd ddadd dddfd 
dmadd daadd ddddd ddadd addad adddd dddfd adaaa daddd ddada ddadd abadd dfddd daddd dadfd ddddd 
dddda ddada daaad ddddd dddad fdddf faddd fadda ddadd dafdd addda addad daddd dddfa aadad dddfa 
addfd daada adadd mdddd dddfd ddddf faadd fdddd ddfdd adddd ddadd daddm ddadd maddd dmddd dddad 
fadaf aafdd dddad daddd dadda adddd afddd ddddd addfd matfd aaddd daadd fdfda dddad damdd ddddf 
dmadf dddda addam ddfdd daadd ddfda ddddd dddfd ddadd dddda ddddd dfaad dddda dadtd dtfda ddada 
dfddd dadad adadd dtaad dddad ddddd mdddd daadd dfddd dfddd fdfda dddda fdada dfddd adbdd dddda 
admdd daddd ddddd fddda ddffd aaadd dddda addat dddfd dddad aaadd dddda ddddd dddad adddd ddddd 
fdfaf addad fdddt fdadd afadd aaadd dfdad faaad dddad adddd daddd ddddd adadd daddd ddadd ddddd 
dfddd daddd dddda dfddd dadda aaada dadfa ddddd daadd ddddd dfddf ddtdd dddba daadd adaad daddd 
fadad adfad ddddd daafa aadda dddmd adddd dddda ddddd fdadd ddbdd ddddd ddaad adadm dddad dadad 
afadd dddda fdadd mdddd dafad daada adadd dmddd aadaa dadda addfd daafd addad daddd ddddd fddfd 
ddddd admdf fdddd dmddf ddddd tddad adddd adddd daadd ddddd ddddd afada addda tdaad dfdda ddafa 
ddddd ddadd ddddd ddddd daddm dadad dddad daddd mdaad dddaf dddda ddadf daddd ddfad dddfd dddfa 
ddddd dadtd dddfd adddd ddddd dddfd vdddf faaaa adafd tdaam adadd dadaa daadf dddad ddaad fdmdd 
ddfdd adada addda ddaad faddd ddaad ddddd ddadd dddda ddadd dadda dadda aaddf ddddd dtddd ddaaa 
daadd dddda dfddd ddddd ddmdd addtd dddda daaad adafd ddaad addmf ddddd addda ddfad dddda fafdd 
fdddf ddada dddfd dddaf fafdd dddda ddfdd daaaf dadfd dffff adddd ddddd ddddd ddfdd fdadd ddddd 
dddaf tddaa ddadd dadma ddddd dddda addfd dadfa dfddd dfddd daddd fadda ddadf dddtd dmdad ddadd 
ddadd addad daddf atfdd ddddd dddda daaaa ddfdd ddddd dfdab ddaad dddfd ddadd dfadd addmf ddddm 
daadf afadd dddda fdddf dffdd adamd dddda ddddd dadda ddddf adddd ddmdt ddddd mddda dadda dadaa 
dfddd ddddd ddfdd dfddd mdddt dddda addad ddadd fdddd ddadd dddad daddd dddfd adddd fdddd dddda 
ddddd adadd ddmdd ddadd ddada dtadd ddddd ddadd adadd ddddf daadf fddfd dmddf ddbad ddddm aaddm 
adaaf adddd dddad fdddd dddda adadf adadd adada adtdd fdddd dfddd ddddt dddad aaadd afadf daddd